

Microchip MPLAB XC8 Assembler V2.10 build 88905656 
                                                                                               Wed Sep 02 16:20:36 2020

Microchip MPLAB XC8 C Compiler v2.10 (Free license) build 20190730164152 Og1 
     1                           	processor	18F45K50
     2                           	fnconf	rparam,??,?,0
     3                           	opt	pw 120
     4                           	opt	flic
     5                           	psect	idataCOMRAM,global,class=CODE,delta=1,noexec
     6                           	psect	cinit,global,reloc=2,class=CODE,delta=1
     7                           	psect	bssCOMRAM,global,class=COMRAM,space=1,delta=1,noexec
     8                           	psect	dataCOMRAM,global,class=COMRAM,space=1,delta=1,noexec
     9                           	psect	cstackCOMRAM,global,class=COMRAM,space=1,delta=1,noexec
    10                           	psect	text0,global,reloc=2,class=CODE,delta=1
    11                           	psect	text1,global,reloc=2,class=CODE,delta=1
    12                           	psect	text2,global,reloc=2,class=CODE,delta=1
    13                           	psect	text3,global,reloc=2,class=CODE,delta=1,group=1
    14                           	psect	text4,global,reloc=2,class=CODE,delta=1,group=1
    15                           	psect	text5,global,reloc=2,class=CODE,delta=1,group=1
    16                           	psect	text6,global,reloc=2,class=CODE,delta=1,group=1
    17                           	psect	text7,global,reloc=2,class=CODE,delta=1
    18                           	psect	text8,global,reloc=2,class=CODE,delta=1
    19                           	psect	text9,global,reloc=2,class=CODE,delta=1
    20                           	psect	text10,global,reloc=2,class=CODE,delta=1
    21                           	psect	text11,global,reloc=2,class=CODE,delta=1
    22                           	psect	text12,global,reloc=2,class=CODE,delta=1
    23                           	psect	text13,global,reloc=2,class=CODE,delta=1
    24                           	psect	intsave_regs,global,class=BIGRAM,space=1,delta=1,noexec
    25                           	psect	rparam,global,class=COMRAM,space=1,delta=1,noexec
    26  0000                     
    27                           ; Version 2.10
    28                           ; Generated 31/07/2019 GMT
    29                           ; 
    30                           ; Copyright © 2019, Microchip Technology Inc. and its subsidiaries ("Microchip")
    31                           ; All rights reserved.
    32                           ; 
    33                           ; This software is developed by Microchip Technology Inc. and its subsidiaries ("Microch
      +                          ip").
    34                           ; 
    35                           ; Redistribution and use in source and binary forms, with or without modification, are
    36                           ; permitted provided that the following conditions are met:
    37                           ; 
    38                           ;     1. Redistributions of source code must retain the above copyright notice, this lis
      +                          t of
    39                           ;        conditions and the following disclaimer.
    40                           ; 
    41                           ;     2. Redistributions in binary form must reproduce the above copyright notice, this 
      +                          list
    42                           ;        of conditions and the following disclaimer in the documentation and/or other
    43                           ;        materials provided with the distribution.
    44                           ; 
    45                           ;     3. Microchip's name may not be used to endorse or promote products derived from th
      +                          is
    46                           ;        software without specific prior written permission.
    47                           ; 
    48                           ; THIS SOFTWARE IS PROVIDED BY MICROCHIP "AS IS" AND ANY EXPRESS OR IMPLIED WARRANTIES,
    49                           ; INCLUDING, BUT NOT LIMITED TO, THE IMPLIED WARRANTIES OF MERCHANTABILITY AND FITNESS F
      +                          OR
    50                           ; PURPOSE ARE DISCLAIMED.  IN NO EVENT SHALL MICROCHIP BE LIABLE FOR ANY DIRECT, INDIREC
      +                          T,
    51                           ; INCIDENTAL, SPECIAL, EXEMPLARY, OR CONSEQUENTIAL DAMAGES (INCLUDING BUT NOT LIMITED TO
    52                           ; PROCUREMENT OF SUBSTITUTE GOODS OR SERVICES; LOSS OF USE, DATA OR PROFITS; OR BUSINESS
    53                           ; INTERRUPTION) HOWSOEVER CAUSED AND ON ANY THEORY OF LIABILITY, WHETHER IN CONTRACT, ST
      +                          RICT
    54                           ; LIABILITY, OR TORT (INCLUDING NEGLIGENCE OR OTHERWISE) ARISING IN ANY WAY OUT OF THE U
      +                          SE OF
    55                           ; THIS SOFTWARE, EVEN IF ADVISED OF THE POSSIBILITY OF SUCH DAMAGE.
    56                           ; 
    57                           ; 
    58                           ; Code-generator required, PIC18F45K50 Definitions
    59                           ; 
    60                           ; SFR Addresses
    61  0000                     
    62                           	psect	idataCOMRAM
    63  0074DC                     __pidataCOMRAM:
    64                           	opt callstack 0
    65                           
    66                           ;initializer for _limite
    67  0074DC  0000               	dw	0
    68  0074DE  41C8               	dw	16840
    69  0000                     _ANSELA	set	3931
    70  0000                     _ANSELE	set	3935
    71  0000                     _ANSELB	set	3932
    72  0000                     _ANSELC	set	3933
    73  0000                     _ANSELD	set	3934
    74  0000                     _LATDbits	set	3980
    75  0000                     _TRISAbits	set	3986
    76  0000                     _TRISBbits	set	3987
    77  0000                     _TRISDbits	set	3989
    78  0000                     _T1CON	set	4045
    79  0000                     _PORTB	set	3969
    80  0000                     _LATBbits	set	3978
    81  0000                     _TMR1L	set	4046
    82  0000                     _TMR1H	set	4047
    83  0000                     _CCPR2H	set	3985
    84  0000                     _CCPR2L	set	3984
    85  0000                     _CCP2CON	set	3991
    86  0000                     _INTCONbits	set	4082
    87  0000                     _INTCON2bits	set	4081
    88  0000                     _WPUB	set	3973
    89  0000                     _TRISD	set	3989
    90  0000                     _TRISC	set	3988
    91  0000                     _TRISB	set	3987
    92  0000                     _TRISA	set	3986
    93  0000                     _TRISE	set	3990
    94  0000                     _LATC	set	3979
    95  0000                     _LATB	set	3978
    96  0000                     _LATA	set	3977
    97  0000                     _LATD	set	3980
    98  0000                     _LATE	set	3981
    99  0000                     _ACTCON	set	4021
   100  0000                     _OSCTUNE	set	3995
   101  0000                     _OSCCON2	set	4050
   102  0000                     _OSCCON	set	4051
   103  0000                     _ADCON0bits	set	4034
   104  0000                     _ADCON0	set	4034
   105  0000                     _ADRESH	set	4036
   106  0000                     _ADRESL	set	4035
   107  0000                     _ADCON2	set	4032
   108  0000                     _ADCON1	set	4033
   109  0000                     _TRISB1	set	31897
   110  0000                     _TMR1ON	set	32360
   111                           
   112                           ; #config settings
   113  0000                     
   114                           	psect	cinit
   115  007540                     __pcinit:
   116                           	opt callstack 0
   117  007540                     start_initialization:
   118                           	opt callstack 0
   119  007540                     __initialization:
   120                           	opt callstack 0
   121                           
   122                           ; Initialize objects allocated to COMRAM (4 bytes)
   123                           ; load TBLPTR registers with __pidataCOMRAM
   124  007540  0EDC               	movlw	low __pidataCOMRAM
   125  007542  6EF6               	movwf	tblptrl,c
   126  007544  0E74               	movlw	high __pidataCOMRAM
   127  007546  6EF7               	movwf	tblptrh,c
   128  007548  0E00               	movlw	low (__pidataCOMRAM shr (0+16))
   129  00754A  6EF8               	movwf	tblptru,c
   130  00754C  EE00  F03C         	lfsr	0,__pdataCOMRAM
   131  007550  EE10 F004          	lfsr	1,4
   132  007554                     copy_data0:
   133  007554  0009               	tblrd		*+
   134  007556  CFF5 FFEE          	movff	tablat,postinc0
   135  00755A  50E5               	movf	postdec1,w,c
   136  00755C  50E1               	movf	fsr1l,w,c
   137  00755E  E1FA               	bnz	copy_data0
   138                           
   139                           ; Clear objects allocated to COMRAM (12 bytes)
   140  007560  EE00  F030         	lfsr	0,__pbssCOMRAM
   141  007564  0E0C               	movlw	12
   142  007566                     clear_0:
   143  007566  6AEE               	clrf	postinc0,c
   144  007568  06E8               	decf	wreg,f,c
   145  00756A  E1FD               	bnz	clear_0
   146  00756C                     end_of_initialization:
   147                           	opt callstack 0
   148  00756C                     __end_of__initialization:
   149                           	opt callstack 0
   150  00756C  0E00               	movlw	low (__Lmediumconst shr (0+16))
   151  00756E  6EF8               	movwf	tblptru,c
   152  007570  0100               	movlb	0
   153  007572  EF39  F03C         	goto	_main	;jump to C main() function
   154                           
   155                           	psect	bssCOMRAM
   156  000030                     __pbssCOMRAM:
   157                           	opt callstack 0
   158  000030                     _temperature:
   159                           	opt callstack 0
   160  000030                     	ds	4
   161  000034                     _distance:
   162                           	opt callstack 0
   163  000034                     	ds	2
   164  000036                     _flag:
   165                           	opt callstack 0
   166  000036                     	ds	2
   167  000038                     _valLM35:
   168                           	opt callstack 0
   169  000038                     	ds	2
   170  00003A                     _ADC_InterruptHandler:
   171                           	opt callstack 0
   172  00003A                     	ds	2
   173                           
   174                           	psect	dataCOMRAM
   175  00003C                     __pdataCOMRAM:
   176                           	opt callstack 0
   177  00003C                     _limite:
   178                           	opt callstack 0
   179  00003C                     	ds	4
   180                           
   181                           	psect	cstackCOMRAM
   182  000001                     __pcstackCOMRAM:
   183                           	opt callstack 0
   184  000001                     ??_ADC_SelectChannel:
   185  000001                     ??_wait_sensor:
   186  000001                     ?_ADC_GetConversion:
   187                           	opt callstack 0
   188  000001                     ?___lwdiv:
   189                           	opt callstack 0
   190  000001                     ?___xxtofl:
   191                           	opt callstack 0
   192  000001                     get_distance@ticks:
   193                           	opt callstack 0
   194  000001                     ___lwdiv@dividend:
   195                           	opt callstack 0
   196  000001                     ___flge@ff1:
   197                           	opt callstack 0
   198  000001                     ___xxtofl@val:
   199                           	opt callstack 0
   200                           
   201                           ; 4 bytes @ 0x0
   202  000001                     	ds	1
   203  000002                     ADC_SelectChannel@channel:
   204                           	opt callstack 0
   205                           
   206                           ; 1 bytes @ 0x1
   207  000002                     	ds	1
   208  000003                     ??_ADC_GetConversion:
   209  000003                     ??_get_distance:
   210  000003                     wait_sensor@i:
   211                           	opt callstack 0
   212  000003                     ___lwdiv@divisor:
   213                           	opt callstack 0
   214                           
   215                           ; 2 bytes @ 0x2
   216  000003                     	ds	2
   217  000005                     ??___xxtofl:
   218  000005                     ADC_GetConversion@channel:
   219                           	opt callstack 0
   220  000005                     ___lwdiv@quotient:
   221                           	opt callstack 0
   222  000005                     ___flge@ff2:
   223                           	opt callstack 0
   224                           
   225                           ; 4 bytes @ 0x4
   226  000005                     	ds	2
   227  000007                     ___lwdiv@counter:
   228                           	opt callstack 0
   229                           
   230                           ; 1 bytes @ 0x6
   231  000007                     	ds	2
   232  000009                     ??___flge:
   233  000009                     ___xxtofl@sign:
   234                           	opt callstack 0
   235                           
   236                           ; 1 bytes @ 0x8
   237  000009                     	ds	1
   238  00000A                     ___xxtofl@exp:
   239                           	opt callstack 0
   240                           
   241                           ; 1 bytes @ 0x9
   242  00000A                     	ds	1
   243  00000B                     ___xxtofl@arg:
   244                           	opt callstack 0
   245                           
   246                           ; 4 bytes @ 0xA
   247  00000B                     	ds	4
   248  00000F                     ?___flmul:
   249                           	opt callstack 0
   250  00000F                     ___flmul@b:
   251                           	opt callstack 0
   252                           
   253                           ; 4 bytes @ 0xE
   254  00000F                     	ds	4
   255  000013                     ___flmul@a:
   256                           	opt callstack 0
   257                           
   258                           ; 4 bytes @ 0x12
   259  000013                     	ds	4
   260  000017                     ??___flmul:
   261                           
   262                           ; 1 bytes @ 0x16
   263  000017                     	ds	4
   264  00001B                     ___flmul@sign:
   265                           	opt callstack 0
   266                           
   267                           ; 1 bytes @ 0x1A
   268  00001B                     	ds	1
   269  00001C                     ___flmul@grs:
   270                           	opt callstack 0
   271                           
   272                           ; 4 bytes @ 0x1B
   273  00001C                     	ds	4
   274  000020                     ___flmul@aexp:
   275                           	opt callstack 0
   276                           
   277                           ; 1 bytes @ 0x1F
   278  000020                     	ds	1
   279  000021                     ___flmul@bexp:
   280                           	opt callstack 0
   281                           
   282                           ; 1 bytes @ 0x20
   283  000021                     	ds	1
   284  000022                     ___flmul@prod:
   285                           	opt callstack 0
   286                           
   287                           ; 4 bytes @ 0x21
   288  000022                     	ds	4
   289  000026                     ___flmul@temp:
   290                           	opt callstack 0
   291                           
   292                           ; 2 bytes @ 0x25
   293  000026                     	ds	2
   294  000028                     ??_main:
   295                           
   296                           ; 1 bytes @ 0x27
   297  000028                     	ds	2
   298  00002A                     _main$1175:
   299                           	opt callstack 0
   300                           
   301                           ; 4 bytes @ 0x29
   302  00002A                     	ds	4
   303  00002E                     main@distance:
   304                           	opt callstack 0
   305                           
   306                           ; 2 bytes @ 0x2D
   307  00002E                     	ds	2
   308                           
   309 ;;
   310 ;;Main: autosize = 0, tempsize = 2, incstack = 0, save=0
   311 ;;
   312 ;; *************** function _main *****************
   313 ;; Defined at:
   314 ;;		line 96 in file "main.c"
   315 ;; Parameters:    Size  Location     Type
   316 ;;		None
   317 ;; Auto vars:     Size  Location     Type
   318 ;;  distance        2   45[COMRAM] unsigned short 
   319 ;; Return value:  Size  Location     Type
   320 ;;                  1    wreg      void 
   321 ;; Registers used:
   322 ;;		wreg, fsr2l, fsr2h, status,2, status,0, prodl, prodh, cstack
   323 ;; Tracked objects:
   324 ;;		On entry : 0/0
   325 ;;		On exit  : 0/0
   326 ;;		Unchanged: 0/0
   327 ;; Data sizes:     COMRAM   BANK0   BANK1   BANK2   BANK3   BANK4   BANK5   BANK6   BANK7
   328 ;;      Params:         0       0       0       0       0       0       0       0       0
   329 ;;      Locals:         6       0       0       0       0       0       0       0       0
   330 ;;      Temps:          2       0       0       0       0       0       0       0       0
   331 ;;      Totals:         8       0       0       0       0       0       0       0       0
   332 ;;Total ram usage:        8 bytes
   333 ;; Hardware stack levels required when called:    2
   334 ;; This function calls:
   335 ;;		_ADC_GetConversion
   336 ;;		_ADC_SelectChannel
   337 ;;		_SYSTEM_Initialize
   338 ;;		___flge
   339 ;;		___flmul
   340 ;;		___lwdiv
   341 ;;		___xxtofl
   342 ;;		_get_distance
   343 ;;		_wait_sensor
   344 ;; This function is called by:
   345 ;;		Startup code after reset
   346 ;; This function uses a non-reentrant model
   347 ;;
   348                           
   349                           	psect	text0
   350  007872                     __ptext0:
   351                           	opt callstack 0
   352  007872                     _main:
   353                           	opt callstack 29
   354  007872                     
   355                           ;main.c: 99:     SYSTEM_Initialize();
   356  007872  EC80  F03A         	call	_SYSTEM_Initialize	;wreg free
   357  007876                     
   358                           ;main.c: 101:     OSCCON = 0x70;
   359  007876  0E70               	movlw	112
   360  007878  6ED3               	movwf	211,c	;volatile
   361  00787A                     
   362                           ;main.c: 102:     OSCTUNE = 0x40;
   363  00787A  0E40               	movlw	64
   364  00787C  6E9B               	movwf	155,c	;volatile
   365  00787E                     
   366                           ;main.c: 104:     PORTB = 0;
   367  00787E  0E00               	movlw	0
   368  007880  6E81               	movwf	129,c	;volatile
   369  007882                     
   370                           ;main.c: 105:     TRISB1 = 0;
   371  007882  9293               	bcf	3987,1,c	;volatile
   372  007884                     
   373                           ;main.c: 107:     T1CON = 0x10;
   374  007884  0E10               	movlw	16
   375  007886  6ECD               	movwf	205,c	;volatile
   376  007888                     
   377                           ;main.c: 108:     TMR1H = TMR1L = 0;
   378  007888  0E00               	movlw	0
   379  00788A  6ECE               	movwf	206,c	;volatile
   380  00788C  CFCE FFCF          	movff	4046,4047	;volatile
   381  007890                     
   382                           ;main.c: 110:     TRISDbits.TRISD0 = 0;
   383  007890  9095               	bcf	149,0,c	;volatile
   384  007892                     
   385                           ;main.c: 112:     TRISBbits.TRISB0 = 0;
   386  007892  9093               	bcf	147,0,c	;volatile
   387  007894                     
   388                           ;main.c: 113:     TRISBbits.TRISB1 = 1;
   389  007894  8293               	bsf	147,1,c	;volatile
   390  007896                     
   391                           ;main.c: 115:     TRISAbits.TRISA0 = 1;
   392  007896  8092               	bsf	146,0,c	;volatile
   393  007898                     
   394                           ;main.c: 116:     _delay((unsigned long)((1000)*(8000000/4000.0)));
   395  007898  0E0B               	movlw	11
   396  00789A  6E29               	movwf	(??_main+1)^0,c
   397  00789C  0E26               	movlw	38
   398  00789E  6E28               	movwf	??_main^0,c
   399  0078A0  0E5E               	movlw	94
   400  0078A2                     u997:
   401  0078A2  2EE8               	decfsz	wreg,f,c
   402  0078A4  D7FE               	bra	u997
   403  0078A6  2E28               	decfsz	??_main^0,f,c
   404  0078A8  D7FC               	bra	u997
   405  0078AA  2E29               	decfsz	(??_main+1)^0,f,c
   406  0078AC  D7FA               	bra	u997
   407  0078AE                     
   408                           ;main.c: 117:     ADC_SelectChannel(1);
   409  0078AE  0E01               	movlw	1
   410  0078B0  EC94  F03A         	call	_ADC_SelectChannel
   411  0078B4                     l1559:
   412                           
   413                           ;main.c: 120:     {;main.c: 121:         if (flag == 0){
   414  0078B4  5036               	movf	_flag^0,w,c
   415  0078B6  1037               	iorwf	(_flag+1)^0,w,c
   416  0078B8  A4D8               	btfss	status,2,c
   417  0078BA  EF61  F03C         	goto	u941
   418  0078BE  EF63  F03C         	goto	u940
   419  0078C2                     u941:
   420  0078C2  EFC8  F03C         	goto	l1571
   421  0078C6                     u940:
   422  0078C6                     
   423                           ;main.c: 122:         valLM35 = ADC_GetConversion(1);
   424  0078C6  0E01               	movlw	1
   425  0078C8  ECDA  F03A         	call	_ADC_GetConversion
   426  0078CC  C001  F038         	movff	?_ADC_GetConversion,_valLM35
   427  0078D0  C002  F039         	movff	?_ADC_GetConversion+1,_valLM35+1
   428  0078D4                     
   429                           ;main.c: 123:         temperature = (float)valLM35*(5/1024)*100;
   430  0078D4  0E00               	movlw	0
   431  0078D6  6E13               	movwf	___flmul@a^0,c
   432  0078D8  0E00               	movlw	0
   433  0078DA  6E14               	movwf	(___flmul@a+1)^0,c
   434  0078DC  0E00               	movlw	0
   435  0078DE  6E15               	movwf	(___flmul@a+2)^0,c
   436  0078E0  0E00               	movlw	0
   437  0078E2  6E16               	movwf	(___flmul@a+3)^0,c
   438  0078E4  C038  F001         	movff	_valLM35,___xxtofl@val
   439  0078E8  C039  F002         	movff	_valLM35+1,___xxtofl@val+1
   440  0078EC  0E00               	movlw	0
   441  0078EE  BE02               	btfsc	(___xxtofl@val+1)^0,7,c
   442  0078F0  0EFF               	movlw	-1
   443  0078F2  6E03               	movwf	(___xxtofl@val+2)^0,c
   444  0078F4  6E04               	movwf	(___xxtofl@val+3)^0,c
   445  0078F6  0E01               	movlw	1
   446  0078F8  EC11  F03D         	call	___xxtofl
   447  0078FC  C001  F00F         	movff	?___xxtofl,___flmul@b
   448  007900  C002  F010         	movff	?___xxtofl+1,___flmul@b+1
   449  007904  C003  F011         	movff	?___xxtofl+2,___flmul@b+2
   450  007908  C004  F012         	movff	?___xxtofl+3,___flmul@b+3
   451  00790C  ECEB  F03D         	call	___flmul	;wreg free
   452  007910  C00F  F02A         	movff	?___flmul,_main$1175
   453  007914  C010  F02B         	movff	?___flmul+1,_main$1175+1
   454  007918  C011  F02C         	movff	?___flmul+2,_main$1175+2
   455  00791C  C012  F02D         	movff	?___flmul+3,_main$1175+3
   456  007920                     
   457                           ;main.c: 123:         temperature = (float)valLM35*(5/1024)*100;
   458  007920  C02A  F00F         	movff	_main$1175,___flmul@b
   459  007924  C02B  F010         	movff	_main$1175+1,___flmul@b+1
   460  007928  C02C  F011         	movff	_main$1175+2,___flmul@b+2
   461  00792C  C02D  F012         	movff	_main$1175+3,___flmul@b+3
   462  007930  0E00               	movlw	0
   463  007932  6E13               	movwf	___flmul@a^0,c
   464  007934  0E00               	movlw	0
   465  007936  6E14               	movwf	(___flmul@a+1)^0,c
   466  007938  0EC8               	movlw	200
   467  00793A  6E15               	movwf	(___flmul@a+2)^0,c
   468  00793C  0E42               	movlw	66
   469  00793E  6E16               	movwf	(___flmul@a+3)^0,c
   470  007940  ECEB  F03D         	call	___flmul	;wreg free
   471  007944  C00F  F030         	movff	?___flmul,_temperature
   472  007948  C010  F031         	movff	?___flmul+1,_temperature+1
   473  00794C  C011  F032         	movff	?___flmul+2,_temperature+2
   474  007950  C012  F033         	movff	?___flmul+3,_temperature+3
   475                           
   476                           ;main.c: 125:         if(temperature>limite){
   477  007954  0E00               	movlw	0
   478  007956  6E01               	movwf	___flge@ff1^0,c
   479  007958  0E00               	movlw	0
   480  00795A  6E02               	movwf	(___flge@ff1+1)^0,c
   481  00795C  0EC8               	movlw	200
   482  00795E  6E03               	movwf	(___flge@ff1+2)^0,c
   483  007960  0E41               	movlw	65
   484  007962  6E04               	movwf	(___flge@ff1+3)^0,c
   485  007964  C030  F005         	movff	_temperature,___flge@ff2
   486  007968  C031  F006         	movff	_temperature+1,___flge@ff2+1
   487  00796C  C032  F007         	movff	_temperature+2,___flge@ff2+2
   488  007970  C033  F008         	movff	_temperature+3,___flge@ff2+3
   489  007974  ECB7  F03B         	call	___flge	;wreg free
   490  007978  B0D8               	btfsc	status,0,c
   491  00797A  EFC1  F03C         	goto	u951
   492  00797E  EFC3  F03C         	goto	u950
   493  007982                     u951:
   494  007982  EFC4  F03C         	goto	l1569
   495  007986                     u950:
   496  007986                     
   497                           ;main.c: 126:         LATDbits.LATD0 = 1;
   498  007986  808C               	bsf	140,0,c	;volatile
   499  007988                     l1569:
   500                           
   501                           ;main.c: 128:         flag =1;
   502  007988  0E00               	movlw	0
   503  00798A  6E37               	movwf	(_flag+1)^0,c
   504  00798C  0E01               	movlw	1
   505  00798E  6E36               	movwf	_flag^0,c
   506  007990                     l1571:
   507                           
   508                           ;main.c: 130:         if (flag == 1){
   509  007990  0436               	decf	_flag^0,w,c
   510  007992  1037               	iorwf	(_flag+1)^0,w,c
   511  007994  A4D8               	btfss	status,2,c
   512  007996  EFCF  F03C         	goto	u961
   513  00799A  EFD1  F03C         	goto	u960
   514  00799E                     u961:
   515  00799E  EF5A  F03C         	goto	l1559
   516  0079A2                     u960:
   517  0079A2                     
   518                           ;main.c: 132:             LATBbits.LATB1 = 0;
   519  0079A2  928A               	bcf	138,1,c	;volatile
   520                           
   521                           ;main.c: 133:             _delay((unsigned long)((2)*(8000000/4000000.0)));
   522  0079A4  D000               	nop2		;2 cycle nop
   523  0079A6  D000               	nop2		;2 cycle nop
   524                           
   525                           ;main.c: 134:             LATBbits.LATB1 = 1;
   526  0079A8  828A               	bsf	138,1,c	;volatile
   527  0079AA                     
   528                           ;main.c: 135:             _delay((unsigned long)((10)*(8000000/4000000.0)));
   529  0079AA  0E06               	movlw	6
   530  0079AC                     u1007:
   531  0079AC  2EE8               	decfsz	wreg,f,c
   532  0079AE  D7FE               	bra	u1007
   533  0079B0  D000               	nop2	
   534  0079B2                     
   535                           ;main.c: 136:             LATBbits.LATB1 = 0;
   536  0079B2  928A               	bcf	138,1,c	;volatile
   537  0079B4                     
   538                           ;main.c: 139:         if (wait_sensor())
   539  0079B4  ECFA  F03A         	call	_wait_sensor	;wreg free
   540  0079B8  A0D8               	btfss	status,0,c
   541  0079BA  EFE1  F03C         	goto	u971
   542  0079BE  EFE3  F03C         	goto	u970
   543  0079C2                     u971:
   544  0079C2  EF01  F03D         	goto	l1587
   545  0079C6                     u970:
   546  0079C6                     
   547                           ;main.c: 140:         {;main.c: 142:           uint16_t distance;;main.c: 144:          
      +                           if(get_distance(&distance))
   548  0079C6  0E2E               	movlw	low main@distance
   549  0079C8  6E01               	movwf	get_distance@ticks^0,c
   550  0079CA  0E00               	movlw	high main@distance
   551  0079CC  6E02               	movwf	(get_distance@ticks+1)^0,c
   552  0079CE  EC6C  F03B         	call	_get_distance	;wreg free
   553  0079D2  A0D8               	btfss	status,0,c
   554  0079D4  EFEE  F03C         	goto	u981
   555  0079D8  EFF0  F03C         	goto	u980
   556  0079DC                     u981:
   557  0079DC  EFF3  F03C         	goto	l1585
   558  0079E0                     u980:
   559  0079E0                     
   560                           ;main.c: 145:           {;main.c: 146:              LATDbits.LATD0 = 1;
   561  0079E0  808C               	bsf	140,0,c	;volatile
   562                           
   563                           ;main.c: 147:           }
   564  0079E2  EF01  F03D         	goto	l1587
   565  0079E6                     l1585:
   566                           
   567                           ;main.c: 150:           {;main.c: 151:             distance = distance / 58;
   568  0079E6  C02E  F001         	movff	main@distance,___lwdiv@dividend
   569  0079EA  C02F  F002         	movff	main@distance+1,___lwdiv@dividend+1
   570  0079EE  0E00               	movlw	0
   571  0079F0  6E04               	movwf	(___lwdiv@divisor+1)^0,c
   572  0079F2  0E3A               	movlw	58
   573  0079F4  6E03               	movwf	___lwdiv@divisor^0,c
   574  0079F6  EC32  F03B         	call	___lwdiv	;wreg free
   575  0079FA  C001  F02E         	movff	?___lwdiv,main@distance
   576  0079FE  C002  F02F         	movff	?___lwdiv+1,main@distance+1
   577  007A02                     l1587:
   578                           
   579                           ;main.c: 157:       _delay((unsigned long)((200)*(8000000/4000.0)));
   580  007A02  0E03               	movlw	3
   581  007A04  6E29               	movwf	(??_main+1)^0,c
   582  007A06  0E08               	movlw	8
   583  007A08  6E28               	movwf	??_main^0,c
   584  007A0A  0E77               	movlw	119
   585  007A0C                     u1017:
   586  007A0C  2EE8               	decfsz	wreg,f,c
   587  007A0E  D7FE               	bra	u1017
   588  007A10  2E28               	decfsz	??_main^0,f,c
   589  007A12  D7FC               	bra	u1017
   590  007A14  2E29               	decfsz	(??_main+1)^0,f,c
   591  007A16  D7FA               	bra	u1017
   592  007A18  F000               	nop	
   593  007A1A  EF5A  F03C         	goto	l1559
   594  007A1E  EF00  F000         	goto	start
   595  007A22                     __end_of_main:
   596                           	opt callstack 0
   597                           
   598 ;; *************** function _wait_sensor *****************
   599 ;; Defined at:
   600 ;;		line 64 in file "main.c"
   601 ;; Parameters:    Size  Location     Type
   602 ;;		None
   603 ;; Auto vars:     Size  Location     Type
   604 ;;  i               2    2[COMRAM] unsigned short 
   605 ;; Return value:  Size  Location     Type
   606 ;;		None               void
   607 ;; Registers used:
   608 ;;		wreg, status,2, status,0
   609 ;; Tracked objects:
   610 ;;		On entry : 0/0
   611 ;;		On exit  : 0/0
   612 ;;		Unchanged: 0/0
   613 ;; Data sizes:     COMRAM   BANK0   BANK1   BANK2   BANK3   BANK4   BANK5   BANK6   BANK7
   614 ;;      Params:         0       0       0       0       0       0       0       0       0
   615 ;;      Locals:         2       0       0       0       0       0       0       0       0
   616 ;;      Temps:          2       0       0       0       0       0       0       0       0
   617 ;;      Totals:         4       0       0       0       0       0       0       0       0
   618 ;;Total ram usage:        4 bytes
   619 ;; Hardware stack levels used:    1
   620 ;; This function calls:
   621 ;;		Nothing
   622 ;; This function is called by:
   623 ;;		_main
   624 ;; This function uses a non-reentrant model
   625 ;;
   626                           
   627                           	psect	text1
   628  0075F4                     __ptext1:
   629                           	opt callstack 0
   630  0075F4                     _wait_sensor:
   631                           	opt callstack 30
   632  0075F4                     
   633                           ;main.c: 66:   uint16_t i = 0;
   634  0075F4  0E00               	movlw	0
   635  0075F6  6E04               	movwf	(wait_sensor@i+1)^0,c
   636  0075F8  0E00               	movlw	0
   637  0075FA  6E03               	movwf	wait_sensor@i^0,c
   638                           
   639                           ;main.c: 67:   TMR1H = TMR1L = 0;
   640  0075FC  0E00               	movlw	0
   641  0075FE  6ECE               	movwf	206,c	;volatile
   642  007600  CFCE FFCF          	movff	4046,4047	;volatile
   643  007604                     
   644                           ;main.c: 68:   TMR1ON = 1;
   645  007604  80CD               	bsf	4045,0,c	;volatile
   646                           
   647                           ;main.c: 69:   while(!LATBbits.LATB0 && (i < 1000))
   648  007606  EF10  F03B         	goto	l1275
   649  00760A                     l1273:
   650                           
   651                           ;main.c: 70:     i = ( TMR1H << 8 ) | TMR1L;
   652  00760A  50CE               	movf	206,w,c	;volatile
   653  00760C  CFCF F001          	movff	4047,??_wait_sensor	;volatile
   654  007610  6A02               	clrf	(??_wait_sensor+1)^0,c
   655  007612  C001  F002         	movff	??_wait_sensor,??_wait_sensor+1
   656  007616  6A01               	clrf	??_wait_sensor^0,c
   657  007618  1001               	iorwf	??_wait_sensor^0,w,c
   658  00761A  6E03               	movwf	wait_sensor@i^0,c
   659  00761C  5002               	movf	(??_wait_sensor+1)^0,w,c
   660  00761E  6E04               	movwf	(wait_sensor@i+1)^0,c
   661  007620                     l1275:
   662                           
   663                           ;main.c: 69:   while(!LATBbits.LATB0 && (i < 1000))
   664  007620  B08A               	btfsc	138,0,c	;volatile
   665  007622  EF15  F03B         	goto	u511
   666  007626  EF17  F03B         	goto	u510
   667  00762A                     u511:
   668  00762A  EF22  F03B         	goto	l1279
   669  00762E                     u510:
   670  00762E  0EE8               	movlw	232
   671  007630  5C03               	subwf	wait_sensor@i^0,w,c
   672  007632  0E03               	movlw	3
   673  007634  5804               	subwfb	(wait_sensor@i+1)^0,w,c
   674  007636  A0D8               	btfss	status,0,c
   675  007638  EF20  F03B         	goto	u521
   676  00763C  EF22  F03B         	goto	u520
   677  007640                     u521:
   678  007640  EF05  F03B         	goto	l1273
   679  007644                     u520:
   680  007644                     l1279:
   681                           
   682                           ;main.c: 72:   if(i >= 1000)
   683  007644  0EE8               	movlw	232
   684  007646  5C03               	subwf	wait_sensor@i^0,w,c
   685  007648  0E03               	movlw	3
   686  00764A  5804               	subwfb	(wait_sensor@i+1)^0,w,c
   687  00764C  A0D8               	btfss	status,0,c
   688  00764E  EF2B  F03B         	goto	u531
   689  007652  EF2D  F03B         	goto	u530
   690  007656                     u531:
   691  007656  EF30  F03B         	goto	l1287
   692  00765A                     u530:
   693  00765A                     
   694                           ;main.c: 73:     return 0;
   695  00765A  90D8               	bcf	status,0,c
   696  00765C  EF31  F03B         	goto	l166
   697  007660                     l1287:
   698                           
   699                           ;main.c: 76:     return 1;
   700  007660  80D8               	bsf	status,0,c
   701  007662                     l166:
   702  007662  0012               	return		;funcret
   703  007664                     __end_of_wait_sensor:
   704                           	opt callstack 0
   705                           
   706 ;; *************** function _get_distance *****************
   707 ;; Defined at:
   708 ;;		line 79 in file "main.c"
   709 ;; Parameters:    Size  Location     Type
   710 ;;  ticks           2    0[COMRAM] PTR unsigned short 
   711 ;;		 -> main@distance(2), 
   712 ;; Auto vars:     Size  Location     Type
   713 ;;		None
   714 ;; Return value:  Size  Location     Type
   715 ;;		None               void
   716 ;; Registers used:
   717 ;;		wreg, fsr2l, fsr2h, status,2, status,0
   718 ;; Tracked objects:
   719 ;;		On entry : 0/0
   720 ;;		On exit  : 0/0
   721 ;;		Unchanged: 0/0
   722 ;; Data sizes:     COMRAM   BANK0   BANK1   BANK2   BANK3   BANK4   BANK5   BANK6   BANK7
   723 ;;      Params:         2       0       0       0       0       0       0       0       0
   724 ;;      Locals:         0       0       0       0       0       0       0       0       0
   725 ;;      Temps:          2       0       0       0       0       0       0       0       0
   726 ;;      Totals:         4       0       0       0       0       0       0       0       0
   727 ;;Total ram usage:        4 bytes
   728 ;; Hardware stack levels used:    1
   729 ;; This function calls:
   730 ;;		Nothing
   731 ;; This function is called by:
   732 ;;		_main
   733 ;; This function uses a non-reentrant model
   734 ;;
   735                           
   736                           	psect	text2
   737  0076D8                     __ptext2:
   738                           	opt callstack 0
   739  0076D8                     _get_distance:
   740                           	opt callstack 30
   741  0076D8                     
   742                           ;main.c: 79: __bit get_distance(uint16_t *ticks);main.c: 80: {;main.c: 81:   *ticks = 0;
   743  0076D8  C001  FFD9         	movff	get_distance@ticks,fsr2l
   744  0076DC  C002  FFDA         	movff	get_distance@ticks+1,fsr2h
   745  0076E0  0E00               	movlw	0
   746  0076E2  6EDE               	movwf	postinc2,c
   747  0076E4  0E00               	movlw	0
   748  0076E6  6EDD               	movwf	postdec2,c
   749  0076E8                     
   750                           ;main.c: 82:   TMR1H = TMR1L = 0;
   751  0076E8  0E00               	movlw	0
   752  0076EA  6ECE               	movwf	206,c	;volatile
   753  0076EC  CFCE FFCF          	movff	4046,4047	;volatile
   754                           
   755                           ;main.c: 84:   while( LATBbits.LATB0 && (*ticks < 23200) )
   756  0076F0  EF8C  F03B         	goto	l1297
   757  0076F4                     l1295:
   758                           
   759                           ;main.c: 85:     *ticks = ( TMR1H << 8 ) | TMR1L;
   760  0076F4  50CE               	movf	206,w,c	;volatile
   761  0076F6  CFCF F003          	movff	4047,??_get_distance	;volatile
   762  0076FA  6A04               	clrf	(??_get_distance+1)^0,c
   763  0076FC  C003  F004         	movff	??_get_distance,??_get_distance+1
   764  007700  6A03               	clrf	??_get_distance^0,c
   765  007702  1203               	iorwf	??_get_distance^0,f,c
   766  007704  0E00               	movlw	0
   767  007706  1204               	iorwf	(??_get_distance+1)^0,f,c
   768  007708  C001  FFD9         	movff	get_distance@ticks,fsr2l
   769  00770C  C002  FFDA         	movff	get_distance@ticks+1,fsr2h
   770  007710  C003  FFDE         	movff	??_get_distance,postinc2
   771  007714  C004  FFDD         	movff	??_get_distance+1,postdec2
   772  007718                     l1297:
   773                           
   774                           ;main.c: 84:   while( LATBbits.LATB0 && (*ticks < 23200) )
   775  007718  A08A               	btfss	138,0,c	;volatile
   776  00771A  EF91  F03B         	goto	u541
   777  00771E  EF93  F03B         	goto	u540
   778  007722                     u541:
   779  007722  EFA2  F03B         	goto	l174
   780  007726                     u540:
   781  007726  C001  FFD9         	movff	get_distance@ticks,fsr2l
   782  00772A  C002  FFDA         	movff	get_distance@ticks+1,fsr2h
   783  00772E  0EA0               	movlw	160
   784  007730  5CDE               	subwf	postinc2,w,c
   785  007732  0E5A               	movlw	90
   786  007734  58DE               	subwfb	postinc2,w,c
   787  007736  A0D8               	btfss	status,0,c
   788  007738  EFA0  F03B         	goto	u551
   789  00773C  EFA2  F03B         	goto	u550
   790  007740                     u551:
   791  007740  EF7A  F03B         	goto	l1295
   792  007744                     u550:
   793  007744                     l174:
   794                           
   795                           ;main.c: 87:   TMR1ON = 0;
   796  007744  90CD               	bcf	4045,0,c	;volatile
   797  007746                     
   798                           ;main.c: 89:   if (*ticks >= 23200)
   799  007746  C001  FFD9         	movff	get_distance@ticks,fsr2l
   800  00774A  C002  FFDA         	movff	get_distance@ticks+1,fsr2h
   801  00774E  0EA0               	movlw	160
   802  007750  5CDE               	subwf	postinc2,w,c
   803  007752  0E5A               	movlw	90
   804  007754  58DE               	subwfb	postinc2,w,c
   805  007756  A0D8               	btfss	status,0,c
   806  007758  EFB0  F03B         	goto	u561
   807  00775C  EFB2  F03B         	goto	u560
   808  007760                     u561:
   809  007760  EFB5  F03B         	goto	l1309
   810  007764                     u560:
   811  007764                     
   812                           ;main.c: 90:     return 1;
   813  007764  80D8               	bsf	status,0,c
   814  007766  EFB6  F03B         	goto	l176
   815  00776A                     l1309:
   816                           
   817                           ;main.c: 93:     return 0;
   818  00776A  90D8               	bcf	status,0,c
   819  00776C                     l176:
   820  00776C  0012               	return		;funcret
   821  00776E                     __end_of_get_distance:
   822                           	opt callstack 0
   823                           
   824 ;; *************** function ___xxtofl *****************
   825 ;; Defined at:
   826 ;;		line 10 in file "C:\Program Files (x86)\Microchip\xc8\v2.10\pic\sources\c99\common\xxtofl.c"
   827 ;; Parameters:    Size  Location     Type
   828 ;;  sign            1    wreg     unsigned char 
   829 ;;  val             4    0[COMRAM] long 
   830 ;; Auto vars:     Size  Location     Type
   831 ;;  sign            1    8[COMRAM] unsigned char 
   832 ;;  arg             4   10[COMRAM] unsigned long 
   833 ;;  exp             1    9[COMRAM] unsigned char 
   834 ;; Return value:  Size  Location     Type
   835 ;;                  4    0[COMRAM] unsigned char 
   836 ;; Registers used:
   837 ;;		wreg, status,2, status,0
   838 ;; Tracked objects:
   839 ;;		On entry : 0/0
   840 ;;		On exit  : 0/0
   841 ;;		Unchanged: 0/0
   842 ;; Data sizes:     COMRAM   BANK0   BANK1   BANK2   BANK3   BANK4   BANK5   BANK6   BANK7
   843 ;;      Params:         4       0       0       0       0       0       0       0       0
   844 ;;      Locals:         6       0       0       0       0       0       0       0       0
   845 ;;      Temps:          4       0       0       0       0       0       0       0       0
   846 ;;      Totals:        14       0       0       0       0       0       0       0       0
   847 ;;Total ram usage:       14 bytes
   848 ;; Hardware stack levels used:    1
   849 ;; This function calls:
   850 ;;		Nothing
   851 ;; This function is called by:
   852 ;;		_main
   853 ;; This function uses a non-reentrant model
   854 ;;
   855                           
   856                           	psect	text3
   857  007A22                     __ptext3:
   858                           	opt callstack 0
   859  007A22                     ___xxtofl:
   860                           	opt callstack 30
   861                           
   862                           ;incstack = 0
   863                           ;___xxtofl@sign stored from wreg
   864  007A22  6E09               	movwf	___xxtofl@sign^0,c
   865  007A24  5009               	movf	___xxtofl@sign^0,w,c
   866  007A26  B4D8               	btfsc	status,2,c
   867  007A28  EF18  F03D         	goto	u841
   868  007A2C  EF1A  F03D         	goto	u840
   869  007A30                     u841:
   870  007A30  EF3C  F03D         	goto	l849
   871  007A34                     u840:
   872  007A34  BE04               	btfsc	(___xxtofl@val+3)^0,7,c
   873  007A36  EF21  F03D         	goto	u850
   874  007A3A  EF1F  F03D         	goto	u851
   875  007A3E                     u851:
   876  007A3E  EF3C  F03D         	goto	l849
   877  007A42                     u850:
   878  007A42  C001  F005         	movff	___xxtofl@val,??___xxtofl
   879  007A46  C002  F006         	movff	___xxtofl@val+1,??___xxtofl+1
   880  007A4A  C003  F007         	movff	___xxtofl@val+2,??___xxtofl+2
   881  007A4E  C004  F008         	movff	___xxtofl@val+3,??___xxtofl+3
   882  007A52  1E05               	comf	??___xxtofl^0,f,c
   883  007A54  1E06               	comf	(??___xxtofl+1)^0,f,c
   884  007A56  1E07               	comf	(??___xxtofl+2)^0,f,c
   885  007A58  1E08               	comf	(??___xxtofl+3)^0,f,c
   886  007A5A  2A05               	incf	??___xxtofl^0,f,c
   887  007A5C  0E00               	movlw	0
   888  007A5E  2206               	addwfc	(??___xxtofl+1)^0,f,c
   889  007A60  2207               	addwfc	(??___xxtofl+2)^0,f,c
   890  007A62  2208               	addwfc	(??___xxtofl+3)^0,f,c
   891  007A64  C005  F00B         	movff	??___xxtofl,___xxtofl@arg
   892  007A68  C006  F00C         	movff	??___xxtofl+1,___xxtofl@arg+1
   893  007A6C  C007  F00D         	movff	??___xxtofl+2,___xxtofl@arg+2
   894  007A70  C008  F00E         	movff	??___xxtofl+3,___xxtofl@arg+3
   895  007A74  EF44  F03D         	goto	l1493
   896  007A78                     l849:
   897  007A78  C001  F00B         	movff	___xxtofl@val,___xxtofl@arg
   898  007A7C  C002  F00C         	movff	___xxtofl@val+1,___xxtofl@arg+1
   899  007A80  C003  F00D         	movff	___xxtofl@val+2,___xxtofl@arg+2
   900  007A84  C004  F00E         	movff	___xxtofl@val+3,___xxtofl@arg+3
   901  007A88                     l1493:
   902  007A88  5001               	movf	___xxtofl@val^0,w,c
   903  007A8A  1002               	iorwf	(___xxtofl@val+1)^0,w,c
   904  007A8C  1003               	iorwf	(___xxtofl@val+2)^0,w,c
   905  007A8E  1004               	iorwf	(___xxtofl@val+3)^0,w,c
   906  007A90  A4D8               	btfss	status,2,c
   907  007A92  EF4D  F03D         	goto	u861
   908  007A96  EF4F  F03D         	goto	u860
   909  007A9A                     u861:
   910  007A9A  EF59  F03D         	goto	l1499
   911  007A9E                     u860:
   912  007A9E  0E00               	movlw	0
   913  007AA0  6E01               	movwf	?___xxtofl^0,c
   914  007AA2  0E00               	movlw	0
   915  007AA4  6E02               	movwf	(?___xxtofl+1)^0,c
   916  007AA6  0E00               	movlw	0
   917  007AA8  6E03               	movwf	(?___xxtofl+2)^0,c
   918  007AAA  0E00               	movlw	0
   919  007AAC  6E04               	movwf	(?___xxtofl+3)^0,c
   920  007AAE  EFEA  F03D         	goto	l852
   921  007AB2                     l1499:
   922  007AB2  0E96               	movlw	150
   923  007AB4  6E0A               	movwf	___xxtofl@exp^0,c
   924  007AB6  EF63  F03D         	goto	l1503
   925  007ABA                     l1501:
   926  007ABA  2A0A               	incf	___xxtofl@exp^0,f,c
   927  007ABC  90D8               	bcf	status,0,c
   928  007ABE  320E               	rrcf	(___xxtofl@arg+3)^0,f,c
   929  007AC0  320D               	rrcf	(___xxtofl@arg+2)^0,f,c
   930  007AC2  320C               	rrcf	(___xxtofl@arg+1)^0,f,c
   931  007AC4  320B               	rrcf	___xxtofl@arg^0,f,c
   932  007AC6                     l1503:
   933  007AC6  0E00               	movlw	0
   934  007AC8  140B               	andwf	___xxtofl@arg^0,w,c
   935  007ACA  6E05               	movwf	??___xxtofl^0,c
   936  007ACC  0E00               	movlw	0
   937  007ACE  140C               	andwf	(___xxtofl@arg+1)^0,w,c
   938  007AD0  6E06               	movwf	(??___xxtofl+1)^0,c
   939  007AD2  0E00               	movlw	0
   940  007AD4  140D               	andwf	(___xxtofl@arg+2)^0,w,c
   941  007AD6  6E07               	movwf	(??___xxtofl+2)^0,c
   942  007AD8  0EFE               	movlw	254
   943  007ADA  140E               	andwf	(___xxtofl@arg+3)^0,w,c
   944  007ADC  6E08               	movwf	(??___xxtofl+3)^0,c
   945  007ADE  5005               	movf	??___xxtofl^0,w,c
   946  007AE0  1006               	iorwf	(??___xxtofl+1)^0,w,c
   947  007AE2  1007               	iorwf	(??___xxtofl+2)^0,w,c
   948  007AE4  1008               	iorwf	(??___xxtofl+3)^0,w,c
   949  007AE6  A4D8               	btfss	status,2,c
   950  007AE8  EF78  F03D         	goto	u871
   951  007AEC  EF7A  F03D         	goto	u870
   952  007AF0                     u871:
   953  007AF0  EF5D  F03D         	goto	l1501
   954  007AF4                     u870:
   955  007AF4  EF88  F03D         	goto	l856
   956  007AF8                     l1505:
   957  007AF8  2A0A               	incf	___xxtofl@exp^0,f,c
   958  007AFA  0E01               	movlw	1
   959  007AFC  260B               	addwf	___xxtofl@arg^0,f,c
   960  007AFE  0E00               	movlw	0
   961  007B00  220C               	addwfc	(___xxtofl@arg+1)^0,f,c
   962  007B02  220D               	addwfc	(___xxtofl@arg+2)^0,f,c
   963  007B04  220E               	addwfc	(___xxtofl@arg+3)^0,f,c
   964  007B06  90D8               	bcf	status,0,c
   965  007B08  320E               	rrcf	(___xxtofl@arg+3)^0,f,c
   966  007B0A  320D               	rrcf	(___xxtofl@arg+2)^0,f,c
   967  007B0C  320C               	rrcf	(___xxtofl@arg+1)^0,f,c
   968  007B0E  320B               	rrcf	___xxtofl@arg^0,f,c
   969  007B10                     l856:
   970  007B10  0E00               	movlw	0
   971  007B12  140B               	andwf	___xxtofl@arg^0,w,c
   972  007B14  6E05               	movwf	??___xxtofl^0,c
   973  007B16  0E00               	movlw	0
   974  007B18  140C               	andwf	(___xxtofl@arg+1)^0,w,c
   975  007B1A  6E06               	movwf	(??___xxtofl+1)^0,c
   976  007B1C  0E00               	movlw	0
   977  007B1E  140D               	andwf	(___xxtofl@arg+2)^0,w,c
   978  007B20  6E07               	movwf	(??___xxtofl+2)^0,c
   979  007B22  0EFF               	movlw	255
   980  007B24  140E               	andwf	(___xxtofl@arg+3)^0,w,c
   981  007B26  6E08               	movwf	(??___xxtofl+3)^0,c
   982  007B28  5005               	movf	??___xxtofl^0,w,c
   983  007B2A  1006               	iorwf	(??___xxtofl+1)^0,w,c
   984  007B2C  1007               	iorwf	(??___xxtofl+2)^0,w,c
   985  007B2E  1008               	iorwf	(??___xxtofl+3)^0,w,c
   986  007B30  A4D8               	btfss	status,2,c
   987  007B32  EF9D  F03D         	goto	u881
   988  007B36  EF9F  F03D         	goto	u880
   989  007B3A                     u881:
   990  007B3A  EF7C  F03D         	goto	l1505
   991  007B3E                     u880:
   992  007B3E  EFA7  F03D         	goto	l1513
   993  007B42                     l1511:
   994  007B42  060A               	decf	___xxtofl@exp^0,f,c
   995  007B44  90D8               	bcf	status,0,c
   996  007B46  360B               	rlcf	___xxtofl@arg^0,f,c
   997  007B48  360C               	rlcf	(___xxtofl@arg+1)^0,f,c
   998  007B4A  360D               	rlcf	(___xxtofl@arg+2)^0,f,c
   999  007B4C  360E               	rlcf	(___xxtofl@arg+3)^0,f,c
  1000  007B4E                     l1513:
  1001  007B4E  BE0D               	btfsc	(___xxtofl@arg+2)^0,7,c
  1002  007B50  EFAC  F03D         	goto	u891
  1003  007B54  EFAE  F03D         	goto	u890
  1004  007B58                     u891:
  1005  007B58  EFB6  F03D         	goto	l863
  1006  007B5C                     u890:
  1007  007B5C  0E02               	movlw	2
  1008  007B5E  600A               	cpfslt	___xxtofl@exp^0,c
  1009  007B60  EFB4  F03D         	goto	u901
  1010  007B64  EFB6  F03D         	goto	u900
  1011  007B68                     u901:
  1012  007B68  EFA1  F03D         	goto	l1511
  1013  007B6C                     u900:
  1014  007B6C                     l863:
  1015  007B6C  B00A               	btfsc	___xxtofl@exp^0,0,c
  1016  007B6E  EFBB  F03D         	goto	u911
  1017  007B72  EFBD  F03D         	goto	u910
  1018  007B76                     u911:
  1019  007B76  EFBE  F03D         	goto	l1519
  1020  007B7A                     u910:
  1021  007B7A  9E0D               	bcf	(___xxtofl@arg+2)^0,7,c
  1022  007B7C                     l1519:
  1023  007B7C  90D8               	bcf	status,0,c
  1024  007B7E  320A               	rrcf	___xxtofl@exp^0,f,c
  1025  007B80  C00A  F005         	movff	___xxtofl@exp,??___xxtofl
  1026  007B84  6A06               	clrf	(??___xxtofl+1)^0,c
  1027  007B86  6A07               	clrf	(??___xxtofl+2)^0,c
  1028  007B88  6A08               	clrf	(??___xxtofl+3)^0,c
  1029  007B8A  C005  F008         	movff	??___xxtofl,??___xxtofl+3
  1030  007B8E  6A07               	clrf	(??___xxtofl+2)^0,c
  1031  007B90  6A06               	clrf	(??___xxtofl+1)^0,c
  1032  007B92  6A05               	clrf	??___xxtofl^0,c
  1033  007B94  5005               	movf	??___xxtofl^0,w,c
  1034  007B96  120B               	iorwf	___xxtofl@arg^0,f,c
  1035  007B98  5006               	movf	(??___xxtofl+1)^0,w,c
  1036  007B9A  120C               	iorwf	(___xxtofl@arg+1)^0,f,c
  1037  007B9C  5007               	movf	(??___xxtofl+2)^0,w,c
  1038  007B9E  120D               	iorwf	(___xxtofl@arg+2)^0,f,c
  1039  007BA0  5008               	movf	(??___xxtofl+3)^0,w,c
  1040  007BA2  120E               	iorwf	(___xxtofl@arg+3)^0,f,c
  1041  007BA4  5009               	movf	___xxtofl@sign^0,w,c
  1042  007BA6  B4D8               	btfsc	status,2,c
  1043  007BA8  EFD8  F03D         	goto	u921
  1044  007BAC  EFDA  F03D         	goto	u920
  1045  007BB0                     u921:
  1046  007BB0  EFE2  F03D         	goto	l1529
  1047  007BB4                     u920:
  1048  007BB4  BE04               	btfsc	(___xxtofl@val+3)^0,7,c
  1049  007BB6  EFE1  F03D         	goto	u930
  1050  007BBA  EFDF  F03D         	goto	u931
  1051  007BBE                     u931:
  1052  007BBE  EFE2  F03D         	goto	l1529
  1053  007BC2                     u930:
  1054  007BC2  8E0E               	bsf	(___xxtofl@arg+3)^0,7,c
  1055  007BC4                     l1529:
  1056  007BC4  C00B  F001         	movff	___xxtofl@arg,?___xxtofl
  1057  007BC8  C00C  F002         	movff	___xxtofl@arg+1,?___xxtofl+1
  1058  007BCC  C00D  F003         	movff	___xxtofl@arg+2,?___xxtofl+2
  1059  007BD0  C00E  F004         	movff	___xxtofl@arg+3,?___xxtofl+3
  1060  007BD4                     l852:
  1061  007BD4  0012               	return		;funcret
  1062  007BD6                     __end_of___xxtofl:
  1063                           	opt callstack 0
  1064                           
  1065 ;; *************** function ___lwdiv *****************
  1066 ;; Defined at:
  1067 ;;		line 7 in file "C:\Program Files (x86)\Microchip\xc8\v2.10\pic\sources\c99\common\lwdiv.c"
  1068 ;; Parameters:    Size  Location     Type
  1069 ;;  dividend        2    0[COMRAM] unsigned int 
  1070 ;;  divisor         2    2[COMRAM] unsigned int 
  1071 ;; Auto vars:     Size  Location     Type
  1072 ;;  quotient        2    4[COMRAM] unsigned int 
  1073 ;;  counter         1    6[COMRAM] unsigned char 
  1074 ;; Return value:  Size  Location     Type
  1075 ;;                  2    0[COMRAM] unsigned int 
  1076 ;; Registers used:
  1077 ;;		wreg, status,2, status,0
  1078 ;; Tracked objects:
  1079 ;;		On entry : 0/0
  1080 ;;		On exit  : 0/0
  1081 ;;		Unchanged: 0/0
  1082 ;; Data sizes:     COMRAM   BANK0   BANK1   BANK2   BANK3   BANK4   BANK5   BANK6   BANK7
  1083 ;;      Params:         4       0       0       0       0       0       0       0       0
  1084 ;;      Locals:         3       0       0       0       0       0       0       0       0
  1085 ;;      Temps:          0       0       0       0       0       0       0       0       0
  1086 ;;      Totals:         7       0       0       0       0       0       0       0       0
  1087 ;;Total ram usage:        7 bytes
  1088 ;; Hardware stack levels used:    1
  1089 ;; This function calls:
  1090 ;;		Nothing
  1091 ;; This function is called by:
  1092 ;;		_main
  1093 ;; This function uses a non-reentrant model
  1094 ;;
  1095                           
  1096                           	psect	text4
  1097  007664                     __ptext4:
  1098                           	opt callstack 0
  1099  007664                     ___lwdiv:
  1100                           	opt callstack 30
  1101  007664  0E00               	movlw	0
  1102  007666  6E06               	movwf	(___lwdiv@quotient+1)^0,c
  1103  007668  0E00               	movlw	0
  1104  00766A  6E05               	movwf	___lwdiv@quotient^0,c
  1105  00766C  5003               	movf	___lwdiv@divisor^0,w,c
  1106  00766E  1004               	iorwf	(___lwdiv@divisor+1)^0,w,c
  1107  007670  B4D8               	btfsc	status,2,c
  1108  007672  EF3D  F03B         	goto	u811
  1109  007676  EF3F  F03B         	goto	u810
  1110  00767A                     u811:
  1111  00767A  EF67  F03B         	goto	l685
  1112  00767E                     u810:
  1113  00767E  0E01               	movlw	1
  1114  007680  6E07               	movwf	___lwdiv@counter^0,c
  1115  007682  EF47  F03B         	goto	l1473
  1116  007686                     l1471:
  1117  007686  90D8               	bcf	status,0,c
  1118  007688  3603               	rlcf	___lwdiv@divisor^0,f,c
  1119  00768A  3604               	rlcf	(___lwdiv@divisor+1)^0,f,c
  1120  00768C  2A07               	incf	___lwdiv@counter^0,f,c
  1121  00768E                     l1473:
  1122  00768E  AE04               	btfss	(___lwdiv@divisor+1)^0,7,c
  1123  007690  EF4C  F03B         	goto	u821
  1124  007694  EF4E  F03B         	goto	u820
  1125  007698                     u821:
  1126  007698  EF43  F03B         	goto	l1471
  1127  00769C                     u820:
  1128  00769C                     l1475:
  1129  00769C  90D8               	bcf	status,0,c
  1130  00769E  3605               	rlcf	___lwdiv@quotient^0,f,c
  1131  0076A0  3606               	rlcf	(___lwdiv@quotient+1)^0,f,c
  1132  0076A2  5003               	movf	___lwdiv@divisor^0,w,c
  1133  0076A4  5C01               	subwf	___lwdiv@dividend^0,w,c
  1134  0076A6  5004               	movf	(___lwdiv@divisor+1)^0,w,c
  1135  0076A8  5802               	subwfb	(___lwdiv@dividend+1)^0,w,c
  1136  0076AA  A0D8               	btfss	status,0,c
  1137  0076AC  EF5A  F03B         	goto	u831
  1138  0076B0  EF5C  F03B         	goto	u830
  1139  0076B4                     u831:
  1140  0076B4  EF61  F03B         	goto	l1483
  1141  0076B8                     u830:
  1142  0076B8  5003               	movf	___lwdiv@divisor^0,w,c
  1143  0076BA  5E01               	subwf	___lwdiv@dividend^0,f,c
  1144  0076BC  5004               	movf	(___lwdiv@divisor+1)^0,w,c
  1145  0076BE  5A02               	subwfb	(___lwdiv@dividend+1)^0,f,c
  1146  0076C0  8005               	bsf	___lwdiv@quotient^0,0,c
  1147  0076C2                     l1483:
  1148  0076C2  90D8               	bcf	status,0,c
  1149  0076C4  3204               	rrcf	(___lwdiv@divisor+1)^0,f,c
  1150  0076C6  3203               	rrcf	___lwdiv@divisor^0,f,c
  1151  0076C8  2E07               	decfsz	___lwdiv@counter^0,f,c
  1152  0076CA  EF4E  F03B         	goto	l1475
  1153  0076CE                     l685:
  1154  0076CE  C005  F001         	movff	___lwdiv@quotient,?___lwdiv
  1155  0076D2  C006  F002         	movff	___lwdiv@quotient+1,?___lwdiv+1
  1156  0076D6  0012               	return		;funcret
  1157  0076D8                     __end_of___lwdiv:
  1158                           	opt callstack 0
  1159                           
  1160 ;; *************** function ___flmul *****************
  1161 ;; Defined at:
  1162 ;;		line 8 in file "C:\Program Files (x86)\Microchip\xc8\v2.10\pic\sources\c99\common\sprcmul.c"
  1163 ;; Parameters:    Size  Location     Type
  1164 ;;  b               4   14[COMRAM] unsigned int 
  1165 ;;  a               4   18[COMRAM] unsigned int 
  1166 ;; Auto vars:     Size  Location     Type
  1167 ;;  prod            4   33[COMRAM] struct .
  1168 ;;  grs             4   27[COMRAM] unsigned long 
  1169 ;;  temp            2   37[COMRAM] struct .
  1170 ;;  bexp            1   32[COMRAM] unsigned char 
  1171 ;;  aexp            1   31[COMRAM] unsigned char 
  1172 ;;  sign            1   26[COMRAM] unsigned char 
  1173 ;; Return value:  Size  Location     Type
  1174 ;;                  4   14[COMRAM] unsigned char 
  1175 ;; Registers used:
  1176 ;;		wreg, status,2, status,0, prodl, prodh
  1177 ;; Tracked objects:
  1178 ;;		On entry : 0/0
  1179 ;;		On exit  : 0/0
  1180 ;;		Unchanged: 0/0
  1181 ;; Data sizes:     COMRAM   BANK0   BANK1   BANK2   BANK3   BANK4   BANK5   BANK6   BANK7
  1182 ;;      Params:         8       0       0       0       0       0       0       0       0
  1183 ;;      Locals:        13       0       0       0       0       0       0       0       0
  1184 ;;      Temps:          4       0       0       0       0       0       0       0       0
  1185 ;;      Totals:        25       0       0       0       0       0       0       0       0
  1186 ;;Total ram usage:       25 bytes
  1187 ;; Hardware stack levels used:    1
  1188 ;; This function calls:
  1189 ;;		Nothing
  1190 ;; This function is called by:
  1191 ;;		_main
  1192 ;; This function uses a non-reentrant model
  1193 ;;
  1194                           
  1195                           	psect	text5
  1196  007BD6                     __ptext5:
  1197                           	opt callstack 0
  1198  007BD6                     ___flmul:
  1199                           	opt callstack 30
  1200  007BD6  5012               	movf	(___flmul@b+3)^0,w,c
  1201  007BD8  0B80               	andlw	128
  1202  007BDA  6E1B               	movwf	___flmul@sign^0,c
  1203  007BDC  5012               	movf	(___flmul@b+3)^0,w,c
  1204  007BDE  2412               	addwf	(___flmul@b+3)^0,w,c
  1205  007BE0  6E21               	movwf	___flmul@bexp^0,c
  1206  007BE2  AE11               	btfss	(___flmul@b+2)^0,7,c
  1207  007BE4  EFF6  F03D         	goto	u571
  1208  007BE8  EFF8  F03D         	goto	u570
  1209  007BEC                     u571:
  1210  007BEC  EFF9  F03D         	goto	l1319
  1211  007BF0                     u570:
  1212  007BF0  8021               	bsf	___flmul@bexp^0,0,c
  1213  007BF2                     l1319:
  1214  007BF2  5021               	movf	___flmul@bexp^0,w,c
  1215  007BF4  B4D8               	btfsc	status,2,c
  1216  007BF6  EFFF  F03D         	goto	u581
  1217  007BFA  EF01  F03E         	goto	u580
  1218  007BFE                     u581:
  1219  007BFE  EF14  F03E         	goto	l1327
  1220  007C02                     u580:
  1221  007C02  2821               	incf	___flmul@bexp^0,w,c
  1222  007C04  A4D8               	btfss	status,2,c
  1223  007C06  EF07  F03E         	goto	u591
  1224  007C0A  EF09  F03E         	goto	u590
  1225  007C0E                     u591:
  1226  007C0E  EF11  F03E         	goto	l1325
  1227  007C12                     u590:
  1228  007C12  0E00               	movlw	0
  1229  007C14  6E0F               	movwf	___flmul@b^0,c
  1230  007C16  0E00               	movlw	0
  1231  007C18  6E10               	movwf	(___flmul@b+1)^0,c
  1232  007C1A  0E00               	movlw	0
  1233  007C1C  6E11               	movwf	(___flmul@b+2)^0,c
  1234  007C1E  0E00               	movlw	0
  1235  007C20  6E12               	movwf	(___flmul@b+3)^0,c
  1236  007C22                     l1325:
  1237  007C22  8E11               	bsf	(___flmul@b+2)^0,7,c
  1238  007C24  EF1C  F03E         	goto	l1329
  1239  007C28                     l1327:
  1240  007C28  0E00               	movlw	0
  1241  007C2A  6E0F               	movwf	___flmul@b^0,c
  1242  007C2C  0E00               	movlw	0
  1243  007C2E  6E10               	movwf	(___flmul@b+1)^0,c
  1244  007C30  0E00               	movlw	0
  1245  007C32  6E11               	movwf	(___flmul@b+2)^0,c
  1246  007C34  0E00               	movlw	0
  1247  007C36  6E12               	movwf	(___flmul@b+3)^0,c
  1248  007C38                     l1329:
  1249  007C38  5016               	movf	(___flmul@a+3)^0,w,c
  1250  007C3A  0B80               	andlw	128
  1251  007C3C  1A1B               	xorwf	___flmul@sign^0,f,c
  1252  007C3E  5016               	movf	(___flmul@a+3)^0,w,c
  1253  007C40  2416               	addwf	(___flmul@a+3)^0,w,c
  1254  007C42  6E20               	movwf	___flmul@aexp^0,c
  1255  007C44  AE15               	btfss	(___flmul@a+2)^0,7,c
  1256  007C46  EF27  F03E         	goto	u601
  1257  007C4A  EF29  F03E         	goto	u600
  1258  007C4E                     u601:
  1259  007C4E  EF2A  F03E         	goto	l1337
  1260  007C52                     u600:
  1261  007C52  8020               	bsf	___flmul@aexp^0,0,c
  1262  007C54                     l1337:
  1263  007C54  5020               	movf	___flmul@aexp^0,w,c
  1264  007C56  B4D8               	btfsc	status,2,c
  1265  007C58  EF30  F03E         	goto	u611
  1266  007C5C  EF32  F03E         	goto	u610
  1267  007C60                     u611:
  1268  007C60  EF45  F03E         	goto	l1345
  1269  007C64                     u610:
  1270  007C64  2820               	incf	___flmul@aexp^0,w,c
  1271  007C66  A4D8               	btfss	status,2,c
  1272  007C68  EF38  F03E         	goto	u621
  1273  007C6C  EF3A  F03E         	goto	u620
  1274  007C70                     u621:
  1275  007C70  EF42  F03E         	goto	l1343
  1276  007C74                     u620:
  1277  007C74  0E00               	movlw	0
  1278  007C76  6E13               	movwf	___flmul@a^0,c
  1279  007C78  0E00               	movlw	0
  1280  007C7A  6E14               	movwf	(___flmul@a+1)^0,c
  1281  007C7C  0E00               	movlw	0
  1282  007C7E  6E15               	movwf	(___flmul@a+2)^0,c
  1283  007C80  0E00               	movlw	0
  1284  007C82  6E16               	movwf	(___flmul@a+3)^0,c
  1285  007C84                     l1343:
  1286  007C84  8E15               	bsf	(___flmul@a+2)^0,7,c
  1287  007C86  EF4D  F03E         	goto	l808
  1288  007C8A                     l1345:
  1289  007C8A  0E00               	movlw	0
  1290  007C8C  6E13               	movwf	___flmul@a^0,c
  1291  007C8E  0E00               	movlw	0
  1292  007C90  6E14               	movwf	(___flmul@a+1)^0,c
  1293  007C92  0E00               	movlw	0
  1294  007C94  6E15               	movwf	(___flmul@a+2)^0,c
  1295  007C96  0E00               	movlw	0
  1296  007C98  6E16               	movwf	(___flmul@a+3)^0,c
  1297  007C9A                     l808:
  1298  007C9A  5020               	movf	___flmul@aexp^0,w,c
  1299  007C9C  B4D8               	btfsc	status,2,c
  1300  007C9E  EF53  F03E         	goto	u631
  1301  007CA2  EF55  F03E         	goto	u630
  1302  007CA6                     u631:
  1303  007CA6  EF5D  F03E         	goto	l1349
  1304  007CAA                     u630:
  1305  007CAA  5021               	movf	___flmul@bexp^0,w,c
  1306  007CAC  A4D8               	btfss	status,2,c
  1307  007CAE  EF5B  F03E         	goto	u641
  1308  007CB2  EF5D  F03E         	goto	u640
  1309  007CB6                     u641:
  1310  007CB6  EF67  F03E         	goto	l1353
  1311  007CBA                     u640:
  1312  007CBA                     l1349:
  1313  007CBA  0E00               	movlw	0
  1314  007CBC  6E0F               	movwf	?___flmul^0,c
  1315  007CBE  0E00               	movlw	0
  1316  007CC0  6E10               	movwf	(?___flmul+1)^0,c
  1317  007CC2  0E00               	movlw	0
  1318  007CC4  6E11               	movwf	(?___flmul+2)^0,c
  1319  007CC6  0E00               	movlw	0
  1320  007CC8  6E12               	movwf	(?___flmul+3)^0,c
  1321  007CCA  EFFF  F03F         	goto	l812
  1322  007CCE                     l1353:
  1323  007CCE  5015               	movf	(___flmul@a+2)^0,w,c
  1324  007CD0  020F               	mulwf	___flmul@b^0,c
  1325  007CD2  CFF3 F026          	movff	prodl,___flmul@temp
  1326  007CD6  CFF4 F027          	movff	prodh,___flmul@temp+1
  1327  007CDA  5026               	movf	___flmul@temp^0,w,c
  1328  007CDC  6E1C               	movwf	___flmul@grs^0,c
  1329  007CDE  6A1D               	clrf	(___flmul@grs+1)^0,c
  1330  007CE0  6A1E               	clrf	(___flmul@grs+2)^0,c
  1331  007CE2  6A1F               	clrf	(___flmul@grs+3)^0,c
  1332  007CE4  5027               	movf	(___flmul@temp+1)^0,w,c
  1333  007CE6  6E22               	movwf	___flmul@prod^0,c
  1334  007CE8  6A23               	clrf	(___flmul@prod+1)^0,c
  1335  007CEA  6A24               	clrf	(___flmul@prod+2)^0,c
  1336  007CEC  6A25               	clrf	(___flmul@prod+3)^0,c
  1337  007CEE  5014               	movf	(___flmul@a+1)^0,w,c
  1338  007CF0  0210               	mulwf	(___flmul@b+1)^0,c
  1339  007CF2  CFF3 F026          	movff	prodl,___flmul@temp
  1340  007CF6  CFF4 F027          	movff	prodh,___flmul@temp+1
  1341  007CFA  5026               	movf	___flmul@temp^0,w,c
  1342  007CFC  261C               	addwf	___flmul@grs^0,f,c
  1343  007CFE  0E00               	movlw	0
  1344  007D00  221D               	addwfc	(___flmul@grs+1)^0,f,c
  1345  007D02  221E               	addwfc	(___flmul@grs+2)^0,f,c
  1346  007D04  221F               	addwfc	(___flmul@grs+3)^0,f,c
  1347  007D06  5027               	movf	(___flmul@temp+1)^0,w,c
  1348  007D08  2622               	addwf	___flmul@prod^0,f,c
  1349  007D0A  0E00               	movlw	0
  1350  007D0C  2223               	addwfc	(___flmul@prod+1)^0,f,c
  1351  007D0E  2224               	addwfc	(___flmul@prod+2)^0,f,c
  1352  007D10  2225               	addwfc	(___flmul@prod+3)^0,f,c
  1353  007D12  5013               	movf	___flmul@a^0,w,c
  1354  007D14  0211               	mulwf	(___flmul@b+2)^0,c
  1355  007D16  CFF3 F026          	movff	prodl,___flmul@temp
  1356  007D1A  CFF4 F027          	movff	prodh,___flmul@temp+1
  1357  007D1E  5026               	movf	___flmul@temp^0,w,c
  1358  007D20  261C               	addwf	___flmul@grs^0,f,c
  1359  007D22  0E00               	movlw	0
  1360  007D24  221D               	addwfc	(___flmul@grs+1)^0,f,c
  1361  007D26  221E               	addwfc	(___flmul@grs+2)^0,f,c
  1362  007D28  221F               	addwfc	(___flmul@grs+3)^0,f,c
  1363  007D2A  5027               	movf	(___flmul@temp+1)^0,w,c
  1364  007D2C  2622               	addwf	___flmul@prod^0,f,c
  1365  007D2E  0E00               	movlw	0
  1366  007D30  2223               	addwfc	(___flmul@prod+1)^0,f,c
  1367  007D32  2224               	addwfc	(___flmul@prod+2)^0,f,c
  1368  007D34  2225               	addwfc	(___flmul@prod+3)^0,f,c
  1369  007D36  C01E  F01F         	movff	___flmul@grs+2,___flmul@grs+3
  1370  007D3A  C01D  F01E         	movff	___flmul@grs+1,___flmul@grs+2
  1371  007D3E  C01C  F01D         	movff	___flmul@grs,___flmul@grs+1
  1372  007D42  6A1C               	clrf	___flmul@grs^0,c
  1373  007D44  5013               	movf	___flmul@a^0,w,c
  1374  007D46  0210               	mulwf	(___flmul@b+1)^0,c
  1375  007D48  CFF3 F026          	movff	prodl,___flmul@temp
  1376  007D4C  CFF4 F027          	movff	prodh,___flmul@temp+1
  1377  007D50  5026               	movf	___flmul@temp^0,w,c
  1378  007D52  261C               	addwf	___flmul@grs^0,f,c
  1379  007D54  5027               	movf	(___flmul@temp+1)^0,w,c
  1380  007D56  221D               	addwfc	(___flmul@grs+1)^0,f,c
  1381  007D58  0E00               	movlw	0
  1382  007D5A  221E               	addwfc	(___flmul@grs+2)^0,f,c
  1383  007D5C  0E00               	movlw	0
  1384  007D5E  221F               	addwfc	(___flmul@grs+3)^0,f,c
  1385  007D60  5014               	movf	(___flmul@a+1)^0,w,c
  1386  007D62  020F               	mulwf	___flmul@b^0,c
  1387  007D64  CFF3 F026          	movff	prodl,___flmul@temp
  1388  007D68  CFF4 F027          	movff	prodh,___flmul@temp+1
  1389  007D6C  5026               	movf	___flmul@temp^0,w,c
  1390  007D6E  261C               	addwf	___flmul@grs^0,f,c
  1391  007D70  5027               	movf	(___flmul@temp+1)^0,w,c
  1392  007D72  221D               	addwfc	(___flmul@grs+1)^0,f,c
  1393  007D74  0E00               	movlw	0
  1394  007D76  221E               	addwfc	(___flmul@grs+2)^0,f,c
  1395  007D78  0E00               	movlw	0
  1396  007D7A  221F               	addwfc	(___flmul@grs+3)^0,f,c
  1397  007D7C  C01E  F01F         	movff	___flmul@grs+2,___flmul@grs+3
  1398  007D80  C01D  F01E         	movff	___flmul@grs+1,___flmul@grs+2
  1399  007D84  C01C  F01D         	movff	___flmul@grs,___flmul@grs+1
  1400  007D88  6A1C               	clrf	___flmul@grs^0,c
  1401  007D8A  5013               	movf	___flmul@a^0,w,c
  1402  007D8C  020F               	mulwf	___flmul@b^0,c
  1403  007D8E  CFF3 F026          	movff	prodl,___flmul@temp
  1404  007D92  CFF4 F027          	movff	prodh,___flmul@temp+1
  1405  007D96  5026               	movf	___flmul@temp^0,w,c
  1406  007D98  261C               	addwf	___flmul@grs^0,f,c
  1407  007D9A  5027               	movf	(___flmul@temp+1)^0,w,c
  1408  007D9C  221D               	addwfc	(___flmul@grs+1)^0,f,c
  1409  007D9E  0E00               	movlw	0
  1410  007DA0  221E               	addwfc	(___flmul@grs+2)^0,f,c
  1411  007DA2  0E00               	movlw	0
  1412  007DA4  221F               	addwfc	(___flmul@grs+3)^0,f,c
  1413  007DA6  5015               	movf	(___flmul@a+2)^0,w,c
  1414  007DA8  0210               	mulwf	(___flmul@b+1)^0,c
  1415  007DAA  CFF3 F026          	movff	prodl,___flmul@temp
  1416  007DAE  CFF4 F027          	movff	prodh,___flmul@temp+1
  1417  007DB2  5026               	movf	___flmul@temp^0,w,c
  1418  007DB4  2622               	addwf	___flmul@prod^0,f,c
  1419  007DB6  5027               	movf	(___flmul@temp+1)^0,w,c
  1420  007DB8  2223               	addwfc	(___flmul@prod+1)^0,f,c
  1421  007DBA  0E00               	movlw	0
  1422  007DBC  2224               	addwfc	(___flmul@prod+2)^0,f,c
  1423  007DBE  0E00               	movlw	0
  1424  007DC0  2225               	addwfc	(___flmul@prod+3)^0,f,c
  1425  007DC2  5014               	movf	(___flmul@a+1)^0,w,c
  1426  007DC4  0211               	mulwf	(___flmul@b+2)^0,c
  1427  007DC6  CFF3 F026          	movff	prodl,___flmul@temp
  1428  007DCA  CFF4 F027          	movff	prodh,___flmul@temp+1
  1429  007DCE  5026               	movf	___flmul@temp^0,w,c
  1430  007DD0  2622               	addwf	___flmul@prod^0,f,c
  1431  007DD2  5027               	movf	(___flmul@temp+1)^0,w,c
  1432  007DD4  2223               	addwfc	(___flmul@prod+1)^0,f,c
  1433  007DD6  0E00               	movlw	0
  1434  007DD8  2224               	addwfc	(___flmul@prod+2)^0,f,c
  1435  007DDA  0E00               	movlw	0
  1436  007DDC  2225               	addwfc	(___flmul@prod+3)^0,f,c
  1437  007DDE  5015               	movf	(___flmul@a+2)^0,w,c
  1438  007DE0  0211               	mulwf	(___flmul@b+2)^0,c
  1439  007DE2  CFF3 F026          	movff	prodl,___flmul@temp
  1440  007DE6  CFF4 F027          	movff	prodh,___flmul@temp+1
  1441  007DEA  5026               	movf	___flmul@temp^0,w,c
  1442  007DEC  6E17               	movwf	??___flmul^0,c
  1443  007DEE  5027               	movf	(___flmul@temp+1)^0,w,c
  1444  007DF0  6E18               	movwf	(??___flmul+1)^0,c
  1445  007DF2  6A19               	clrf	(??___flmul+2)^0,c
  1446  007DF4  6A1A               	clrf	(??___flmul+3)^0,c
  1447  007DF6  C019  F01A         	movff	??___flmul+2,??___flmul+3
  1448  007DFA  C018  F019         	movff	??___flmul+1,??___flmul+2
  1449  007DFE  C017  F018         	movff	??___flmul,??___flmul+1
  1450  007E02  6A17               	clrf	??___flmul^0,c
  1451  007E04  5017               	movf	??___flmul^0,w,c
  1452  007E06  2622               	addwf	___flmul@prod^0,f,c
  1453  007E08  5018               	movf	(??___flmul+1)^0,w,c
  1454  007E0A  2223               	addwfc	(___flmul@prod+1)^0,f,c
  1455  007E0C  5019               	movf	(??___flmul+2)^0,w,c
  1456  007E0E  2224               	addwfc	(___flmul@prod+2)^0,f,c
  1457  007E10  501A               	movf	(??___flmul+3)^0,w,c
  1458  007E12  2225               	addwfc	(___flmul@prod+3)^0,f,c
  1459  007E14  C01C  F017         	movff	___flmul@grs,??___flmul
  1460  007E18  C01D  F018         	movff	___flmul@grs+1,??___flmul+1
  1461  007E1C  C01E  F019         	movff	___flmul@grs+2,??___flmul+2
  1462  007E20  C01F  F01A         	movff	___flmul@grs+3,??___flmul+3
  1463  007E24  0E19               	movlw	25
  1464  007E26  EF1A  F03F         	goto	u650
  1465  007E2A                     u655:
  1466  007E2A  90D8               	bcf	status,0,c
  1467  007E2C  321A               	rrcf	(??___flmul+3)^0,f,c
  1468  007E2E  3219               	rrcf	(??___flmul+2)^0,f,c
  1469  007E30  3218               	rrcf	(??___flmul+1)^0,f,c
  1470  007E32  3217               	rrcf	??___flmul^0,f,c
  1471  007E34                     u650:
  1472  007E34  2EE8               	decfsz	wreg,f,c
  1473  007E36  EF15  F03F         	goto	u655
  1474  007E3A  5017               	movf	??___flmul^0,w,c
  1475  007E3C  2622               	addwf	___flmul@prod^0,f,c
  1476  007E3E  5018               	movf	(??___flmul+1)^0,w,c
  1477  007E40  2223               	addwfc	(___flmul@prod+1)^0,f,c
  1478  007E42  5019               	movf	(??___flmul+2)^0,w,c
  1479  007E44  2224               	addwfc	(___flmul@prod+2)^0,f,c
  1480  007E46  501A               	movf	(??___flmul+3)^0,w,c
  1481  007E48  2225               	addwfc	(___flmul@prod+3)^0,f,c
  1482  007E4A  C01E  F01F         	movff	___flmul@grs+2,___flmul@grs+3
  1483  007E4E  C01D  F01E         	movff	___flmul@grs+1,___flmul@grs+2
  1484  007E52  C01C  F01D         	movff	___flmul@grs,___flmul@grs+1
  1485  007E56  6A1C               	clrf	___flmul@grs^0,c
  1486  007E58  5020               	movf	___flmul@aexp^0,w,c
  1487  007E5A  C021  F017         	movff	___flmul@bexp,??___flmul
  1488  007E5E  6A18               	clrf	(??___flmul+1)^0,c
  1489  007E60  2617               	addwf	??___flmul^0,f,c
  1490  007E62  0E00               	movlw	0
  1491  007E64  2218               	addwfc	(??___flmul+1)^0,f,c
  1492  007E66  0E82               	movlw	130
  1493  007E68  2417               	addwf	??___flmul^0,w,c
  1494  007E6A  6E26               	movwf	___flmul@temp^0,c
  1495  007E6C  0EFF               	movlw	255
  1496  007E6E  2018               	addwfc	(??___flmul+1)^0,w,c
  1497  007E70  6E27               	movwf	(___flmul@temp+1)^0,c
  1498  007E72  EF50  F03F         	goto	l1401
  1499  007E76                     l1395:
  1500  007E76  90D8               	bcf	status,0,c
  1501  007E78  3622               	rlcf	___flmul@prod^0,f,c
  1502  007E7A  3623               	rlcf	(___flmul@prod+1)^0,f,c
  1503  007E7C  3624               	rlcf	(___flmul@prod+2)^0,f,c
  1504  007E7E  3625               	rlcf	(___flmul@prod+3)^0,f,c
  1505  007E80  AE1F               	btfss	(___flmul@grs+3)^0,7,c
  1506  007E82  EF45  F03F         	goto	u661
  1507  007E86  EF47  F03F         	goto	u660
  1508  007E8A                     u661:
  1509  007E8A  EF48  F03F         	goto	l815
  1510  007E8E                     u660:
  1511  007E8E  8022               	bsf	___flmul@prod^0,0,c
  1512  007E90                     l815:
  1513  007E90  90D8               	bcf	status,0,c
  1514  007E92  361C               	rlcf	___flmul@grs^0,f,c
  1515  007E94  361D               	rlcf	(___flmul@grs+1)^0,f,c
  1516  007E96  361E               	rlcf	(___flmul@grs+2)^0,f,c
  1517  007E98  361F               	rlcf	(___flmul@grs+3)^0,f,c
  1518  007E9A  0626               	decf	___flmul@temp^0,f,c
  1519  007E9C  A0D8               	btfss	status,0,c
  1520  007E9E  0627               	decf	(___flmul@temp+1)^0,f,c
  1521  007EA0                     l1401:
  1522  007EA0  AE24               	btfss	(___flmul@prod+2)^0,7,c
  1523  007EA2  EF55  F03F         	goto	u671
  1524  007EA6  EF57  F03F         	goto	u670
  1525  007EAA                     u671:
  1526  007EAA  EF3B  F03F         	goto	l1395
  1527  007EAE                     u670:
  1528  007EAE  0E00               	movlw	0
  1529  007EB0  6E20               	movwf	___flmul@aexp^0,c
  1530  007EB2  AE1F               	btfss	(___flmul@grs+3)^0,7,c
  1531  007EB4  EF5E  F03F         	goto	u681
  1532  007EB8  EF60  F03F         	goto	u680
  1533  007EBC                     u681:
  1534  007EBC  EF84  F03F         	goto	l817
  1535  007EC0                     u680:
  1536  007EC0  0EFF               	movlw	255
  1537  007EC2  141C               	andwf	___flmul@grs^0,w,c
  1538  007EC4  6E17               	movwf	??___flmul^0,c
  1539  007EC6  0EFF               	movlw	255
  1540  007EC8  141D               	andwf	(___flmul@grs+1)^0,w,c
  1541  007ECA  6E18               	movwf	(??___flmul+1)^0,c
  1542  007ECC  0EFF               	movlw	255
  1543  007ECE  141E               	andwf	(___flmul@grs+2)^0,w,c
  1544  007ED0  6E19               	movwf	(??___flmul+2)^0,c
  1545  007ED2  0E7F               	movlw	127
  1546  007ED4  141F               	andwf	(___flmul@grs+3)^0,w,c
  1547  007ED6  6E1A               	movwf	(??___flmul+3)^0,c
  1548  007ED8  5017               	movf	??___flmul^0,w,c
  1549  007EDA  1018               	iorwf	(??___flmul+1)^0,w,c
  1550  007EDC  1019               	iorwf	(??___flmul+2)^0,w,c
  1551  007EDE  101A               	iorwf	(??___flmul+3)^0,w,c
  1552  007EE0  B4D8               	btfsc	status,2,c
  1553  007EE2  EF75  F03F         	goto	u691
  1554  007EE6  EF77  F03F         	goto	u690
  1555  007EEA                     u691:
  1556  007EEA  EF7B  F03F         	goto	l818
  1557  007EEE                     u690:
  1558  007EEE                     l1409:
  1559  007EEE  0E01               	movlw	1
  1560  007EF0  6E20               	movwf	___flmul@aexp^0,c
  1561  007EF2  EF84  F03F         	goto	l817
  1562  007EF6                     l818:
  1563  007EF6  A022               	btfss	___flmul@prod^0,0,c
  1564  007EF8  EF80  F03F         	goto	u701
  1565  007EFC  EF82  F03F         	goto	u700
  1566  007F00                     u701:
  1567  007F00  EF84  F03F         	goto	l817
  1568  007F04                     u700:
  1569  007F04  EF77  F03F         	goto	l1409
  1570  007F08                     l817:
  1571  007F08  5020               	movf	___flmul@aexp^0,w,c
  1572  007F0A  B4D8               	btfsc	status,2,c
  1573  007F0C  EF8A  F03F         	goto	u711
  1574  007F10  EF8C  F03F         	goto	u710
  1575  007F14                     u711:
  1576  007F14  EFB0  F03F         	goto	l1421
  1577  007F18                     u710:
  1578  007F18  0E01               	movlw	1
  1579  007F1A  2622               	addwf	___flmul@prod^0,f,c
  1580  007F1C  0E00               	movlw	0
  1581  007F1E  2223               	addwfc	(___flmul@prod+1)^0,f,c
  1582  007F20  2224               	addwfc	(___flmul@prod+2)^0,f,c
  1583  007F22  2225               	addwfc	(___flmul@prod+3)^0,f,c
  1584  007F24  A025               	btfss	(___flmul@prod+3)^0,0,c
  1585  007F26  EF97  F03F         	goto	u721
  1586  007F2A  EF99  F03F         	goto	u720
  1587  007F2E                     u721:
  1588  007F2E  EFB0  F03F         	goto	l1421
  1589  007F32                     u720:
  1590  007F32  C022  F017         	movff	___flmul@prod,??___flmul
  1591  007F36  C023  F018         	movff	___flmul@prod+1,??___flmul+1
  1592  007F3A  C024  F019         	movff	___flmul@prod+2,??___flmul+2
  1593  007F3E  C025  F01A         	movff	___flmul@prod+3,??___flmul+3
  1594  007F42  341A               	rlcf	(??___flmul+3)^0,w,c
  1595  007F44  321A               	rrcf	(??___flmul+3)^0,f,c
  1596  007F46  3219               	rrcf	(??___flmul+2)^0,f,c
  1597  007F48  3218               	rrcf	(??___flmul+1)^0,f,c
  1598  007F4A  3217               	rrcf	??___flmul^0,f,c
  1599  007F4C  C017  F022         	movff	??___flmul,___flmul@prod
  1600  007F50  C018  F023         	movff	??___flmul+1,___flmul@prod+1
  1601  007F54  C019  F024         	movff	??___flmul+2,___flmul@prod+2
  1602  007F58  C01A  F025         	movff	??___flmul+3,___flmul@prod+3
  1603  007F5C  4A26               	infsnz	___flmul@temp^0,f,c
  1604  007F5E  2A27               	incf	(___flmul@temp+1)^0,f,c
  1605  007F60                     l1421:
  1606  007F60  BE27               	btfsc	(___flmul@temp+1)^0,7,c
  1607  007F62  EFBB  F03F         	goto	u731
  1608  007F66  5027               	movf	(___flmul@temp+1)^0,w,c
  1609  007F68  E108               	bnz	u730
  1610  007F6A  2826               	incf	___flmul@temp^0,w,c
  1611  007F6C  A0D8               	btfss	status,0,c
  1612  007F6E  EFBB  F03F         	goto	u731
  1613  007F72  EFBD  F03F         	goto	u730
  1614  007F76                     u731:
  1615  007F76  EFC7  F03F         	goto	l1425
  1616  007F7A                     u730:
  1617  007F7A  0E00               	movlw	0
  1618  007F7C  6E22               	movwf	___flmul@prod^0,c
  1619  007F7E  0E00               	movlw	0
  1620  007F80  6E23               	movwf	(___flmul@prod+1)^0,c
  1621  007F82  0E80               	movlw	128
  1622  007F84  6E24               	movwf	(___flmul@prod+2)^0,c
  1623  007F86  0E7F               	movlw	127
  1624  007F88  6E25               	movwf	(___flmul@prod+3)^0,c
  1625  007F8A  EFF5  F03F         	goto	l1437
  1626  007F8E                     l1425:
  1627  007F8E  BE27               	btfsc	(___flmul@temp+1)^0,7,c
  1628  007F90  EFD4  F03F         	goto	u740
  1629  007F94  5027               	movf	(___flmul@temp+1)^0,w,c
  1630  007F96  E106               	bnz	u741
  1631  007F98  0426               	decf	___flmul@temp^0,w,c
  1632  007F9A  B0D8               	btfsc	status,0,c
  1633  007F9C  EFD2  F03F         	goto	u741
  1634  007FA0  EFD4  F03F         	goto	u740
  1635  007FA4                     u741:
  1636  007FA4  EFE0  F03F         	goto	l825
  1637  007FA8                     u740:
  1638  007FA8  0E00               	movlw	0
  1639  007FAA  6E22               	movwf	___flmul@prod^0,c
  1640  007FAC  0E00               	movlw	0
  1641  007FAE  6E23               	movwf	(___flmul@prod+1)^0,c
  1642  007FB0  0E00               	movlw	0
  1643  007FB2  6E24               	movwf	(___flmul@prod+2)^0,c
  1644  007FB4  0E00               	movlw	0
  1645  007FB6  6E25               	movwf	(___flmul@prod+3)^0,c
  1646  007FB8  0E00               	movlw	0
  1647  007FBA  6E1B               	movwf	___flmul@sign^0,c
  1648  007FBC  EFF5  F03F         	goto	l1437
  1649  007FC0                     l825:
  1650  007FC0  C026  F021         	movff	___flmul@temp,___flmul@bexp
  1651  007FC4  0EFF               	movlw	255
  1652  007FC6  1622               	andwf	___flmul@prod^0,f,c
  1653  007FC8  0EFF               	movlw	255
  1654  007FCA  1623               	andwf	(___flmul@prod+1)^0,f,c
  1655  007FCC  0E7F               	movlw	127
  1656  007FCE  1624               	andwf	(___flmul@prod+2)^0,f,c
  1657  007FD0  0E00               	movlw	0
  1658  007FD2  1625               	andwf	(___flmul@prod+3)^0,f,c
  1659  007FD4  A021               	btfss	___flmul@bexp^0,0,c
  1660  007FD6  EFEF  F03F         	goto	u751
  1661  007FDA  EFF1  F03F         	goto	u750
  1662  007FDE                     u751:
  1663  007FDE  EFF2  F03F         	goto	l1435
  1664  007FE2                     u750:
  1665  007FE2  8E24               	bsf	(___flmul@prod+2)^0,7,c
  1666  007FE4                     l1435:
  1667  007FE4  90D8               	bcf	status,0,c
  1668  007FE6  3021               	rrcf	___flmul@bexp^0,w,c
  1669  007FE8  6E25               	movwf	(___flmul@prod+3)^0,c
  1670  007FEA                     l1437:
  1671  007FEA  501B               	movf	___flmul@sign^0,w,c
  1672  007FEC  1225               	iorwf	(___flmul@prod+3)^0,f,c
  1673  007FEE  C022  F00F         	movff	___flmul@prod,?___flmul
  1674  007FF2  C023  F010         	movff	___flmul@prod+1,?___flmul+1
  1675  007FF6  C024  F011         	movff	___flmul@prod+2,?___flmul+2
  1676  007FFA  C025  F012         	movff	___flmul@prod+3,?___flmul+3
  1677  007FFE                     l812:
  1678  007FFE  0012               	return		;funcret
  1679  008000                     __end_of___flmul:
  1680                           	opt callstack 0
  1681                           
  1682 ;; *************** function ___flge *****************
  1683 ;; Defined at:
  1684 ;;		line 4 in file "C:\Program Files (x86)\Microchip\xc8\v2.10\pic\sources\c99\common\flge.c"
  1685 ;; Parameters:    Size  Location     Type
  1686 ;;  ff1             4    0[COMRAM] unsigned char 
  1687 ;;  ff2             4    4[COMRAM] unsigned char 
  1688 ;; Auto vars:     Size  Location     Type
  1689 ;;		None
  1690 ;; Return value:  Size  Location     Type
  1691 ;;		None               void
  1692 ;; Registers used:
  1693 ;;		wreg, status,2, status,0
  1694 ;; Tracked objects:
  1695 ;;		On entry : 0/0
  1696 ;;		On exit  : 0/0
  1697 ;;		Unchanged: 0/0
  1698 ;; Data sizes:     COMRAM   BANK0   BANK1   BANK2   BANK3   BANK4   BANK5   BANK6   BANK7
  1699 ;;      Params:         8       0       0       0       0       0       0       0       0
  1700 ;;      Locals:         0       0       0       0       0       0       0       0       0
  1701 ;;      Temps:          4       0       0       0       0       0       0       0       0
  1702 ;;      Totals:        12       0       0       0       0       0       0       0       0
  1703 ;;Total ram usage:       12 bytes
  1704 ;; Hardware stack levels used:    1
  1705 ;; This function calls:
  1706 ;;		Nothing
  1707 ;; This function is called by:
  1708 ;;		_main
  1709 ;; This function uses a non-reentrant model
  1710 ;;
  1711                           
  1712                           	psect	text6
  1713  00776E                     __ptext6:
  1714                           	opt callstack 0
  1715  00776E                     ___flge:
  1716                           	opt callstack 30
  1717  00776E  0E00               	movlw	0
  1718  007770  1401               	andwf	___flge@ff1^0,w,c
  1719  007772  6E09               	movwf	??___flge^0,c
  1720  007774  0E00               	movlw	0
  1721  007776  1402               	andwf	(___flge@ff1+1)^0,w,c
  1722  007778  6E0A               	movwf	(??___flge+1)^0,c
  1723  00777A  0E80               	movlw	128
  1724  00777C  1403               	andwf	(___flge@ff1+2)^0,w,c
  1725  00777E  6E0B               	movwf	(??___flge+2)^0,c
  1726  007780  0E7F               	movlw	127
  1727  007782  1404               	andwf	(___flge@ff1+3)^0,w,c
  1728  007784  6E0C               	movwf	(??___flge+3)^0,c
  1729  007786  5009               	movf	??___flge^0,w,c
  1730  007788  100A               	iorwf	(??___flge+1)^0,w,c
  1731  00778A  100B               	iorwf	(??___flge+2)^0,w,c
  1732  00778C  100C               	iorwf	(??___flge+3)^0,w,c
  1733  00778E  A4D8               	btfss	status,2,c
  1734  007790  EFCC  F03B         	goto	u761
  1735  007794  EFCE  F03B         	goto	u760
  1736  007798                     u761:
  1737  007798  EFD6  F03B         	goto	l1447
  1738  00779C                     u760:
  1739  00779C  0E00               	movlw	0
  1740  00779E  6E01               	movwf	___flge@ff1^0,c
  1741  0077A0  0E00               	movlw	0
  1742  0077A2  6E02               	movwf	(___flge@ff1+1)^0,c
  1743  0077A4  0E00               	movlw	0
  1744  0077A6  6E03               	movwf	(___flge@ff1+2)^0,c
  1745  0077A8  0E00               	movlw	0
  1746  0077AA  6E04               	movwf	(___flge@ff1+3)^0,c
  1747  0077AC                     l1447:
  1748  0077AC  0E00               	movlw	0
  1749  0077AE  1405               	andwf	___flge@ff2^0,w,c
  1750  0077B0  6E09               	movwf	??___flge^0,c
  1751  0077B2  0E00               	movlw	0
  1752  0077B4  1406               	andwf	(___flge@ff2+1)^0,w,c
  1753  0077B6  6E0A               	movwf	(??___flge+1)^0,c
  1754  0077B8  0E80               	movlw	128
  1755  0077BA  1407               	andwf	(___flge@ff2+2)^0,w,c
  1756  0077BC  6E0B               	movwf	(??___flge+2)^0,c
  1757  0077BE  0E7F               	movlw	127
  1758  0077C0  1408               	andwf	(___flge@ff2+3)^0,w,c
  1759  0077C2  6E0C               	movwf	(??___flge+3)^0,c
  1760  0077C4  5009               	movf	??___flge^0,w,c
  1761  0077C6  100A               	iorwf	(??___flge+1)^0,w,c
  1762  0077C8  100B               	iorwf	(??___flge+2)^0,w,c
  1763  0077CA  100C               	iorwf	(??___flge+3)^0,w,c
  1764  0077CC  A4D8               	btfss	status,2,c
  1765  0077CE  EFEB  F03B         	goto	u771
  1766  0077D2  EFED  F03B         	goto	u770
  1767  0077D6                     u771:
  1768  0077D6  EFF5  F03B         	goto	l1451
  1769  0077DA                     u770:
  1770  0077DA  0E00               	movlw	0
  1771  0077DC  6E05               	movwf	___flge@ff2^0,c
  1772  0077DE  0E00               	movlw	0
  1773  0077E0  6E06               	movwf	(___flge@ff2+1)^0,c
  1774  0077E2  0E00               	movlw	0
  1775  0077E4  6E07               	movwf	(___flge@ff2+2)^0,c
  1776  0077E6  0E00               	movlw	0
  1777  0077E8  6E08               	movwf	(___flge@ff2+3)^0,c
  1778  0077EA                     l1451:
  1779  0077EA  AE04               	btfss	(___flge@ff1+3)^0,7,c
  1780  0077EC  EFFA  F03B         	goto	u781
  1781  0077F0  EFFC  F03B         	goto	u780
  1782  0077F4                     u781:
  1783  0077F4  EF05  F03C         	goto	l1455
  1784  0077F8                     u780:
  1785  0077F8  6C01               	negf	___flge@ff1^0,c
  1786  0077FA  1E02               	comf	(___flge@ff1+1)^0,f,c
  1787  0077FC  B0D8               	btfsc	status,0,c
  1788  0077FE  2A02               	incf	(___flge@ff1+1)^0,f,c
  1789  007800  1E03               	comf	(___flge@ff1+2)^0,f,c
  1790  007802  B0D8               	btfsc	status,0,c
  1791  007804  2A03               	incf	(___flge@ff1+2)^0,f,c
  1792  007806  0E80               	movlw	128
  1793  007808  5604               	subfwb	(___flge@ff1+3)^0,f,c
  1794  00780A                     l1455:
  1795  00780A  AE08               	btfss	(___flge@ff2+3)^0,7,c
  1796  00780C  EF0A  F03C         	goto	u791
  1797  007810  EF0C  F03C         	goto	u790
  1798  007814                     u791:
  1799  007814  EF15  F03C         	goto	l459
  1800  007818                     u790:
  1801  007818  6C05               	negf	___flge@ff2^0,c
  1802  00781A  1E06               	comf	(___flge@ff2+1)^0,f,c
  1803  00781C  B0D8               	btfsc	status,0,c
  1804  00781E  2A06               	incf	(___flge@ff2+1)^0,f,c
  1805  007820  1E07               	comf	(___flge@ff2+2)^0,f,c
  1806  007822  B0D8               	btfsc	status,0,c
  1807  007824  2A07               	incf	(___flge@ff2+2)^0,f,c
  1808  007826  0E80               	movlw	128
  1809  007828  5608               	subfwb	(___flge@ff2+3)^0,f,c
  1810  00782A                     l459:
  1811  00782A  0E00               	movlw	0
  1812  00782C  1A01               	xorwf	___flge@ff1^0,f,c
  1813  00782E  0E00               	movlw	0
  1814  007830  1A02               	xorwf	(___flge@ff1+1)^0,f,c
  1815  007832  0E00               	movlw	0
  1816  007834  1A03               	xorwf	(___flge@ff1+2)^0,f,c
  1817  007836  0E80               	movlw	128
  1818  007838  1A04               	xorwf	(___flge@ff1+3)^0,f,c
  1819  00783A  0E00               	movlw	0
  1820  00783C  1A05               	xorwf	___flge@ff2^0,f,c
  1821  00783E  0E00               	movlw	0
  1822  007840  1A06               	xorwf	(___flge@ff2+1)^0,f,c
  1823  007842  0E00               	movlw	0
  1824  007844  1A07               	xorwf	(___flge@ff2+2)^0,f,c
  1825  007846  0E80               	movlw	128
  1826  007848  1A08               	xorwf	(___flge@ff2+3)^0,f,c
  1827  00784A  5005               	movf	___flge@ff2^0,w,c
  1828  00784C  5C01               	subwf	___flge@ff1^0,w,c
  1829  00784E  5006               	movf	(___flge@ff2+1)^0,w,c
  1830  007850  5802               	subwfb	(___flge@ff1+1)^0,w,c
  1831  007852  5007               	movf	(___flge@ff2+2)^0,w,c
  1832  007854  5803               	subwfb	(___flge@ff1+2)^0,w,c
  1833  007856  5008               	movf	(___flge@ff2+3)^0,w,c
  1834  007858  5804               	subwfb	(___flge@ff1+3)^0,w,c
  1835  00785A  B0D8               	btfsc	status,0,c
  1836  00785C  EF32  F03C         	goto	u801
  1837  007860  EF34  F03C         	goto	u800
  1838  007864                     u801:
  1839  007864  EF37  F03C         	goto	l1461
  1840  007868                     u800:
  1841  007868  90D8               	bcf	status,0,c
  1842  00786A  EF38  F03C         	goto	l464
  1843  00786E                     l1461:
  1844  00786E  80D8               	bsf	status,0,c
  1845  007870                     l464:
  1846  007870  0012               	return		;funcret
  1847  007872                     __end_of___flge:
  1848                           	opt callstack 0
  1849                           
  1850 ;; *************** function _SYSTEM_Initialize *****************
  1851 ;; Defined at:
  1852 ;;		line 50 in file "mcc_generated_files/mcc.c"
  1853 ;; Parameters:    Size  Location     Type
  1854 ;;		None
  1855 ;; Auto vars:     Size  Location     Type
  1856 ;;		None
  1857 ;; Return value:  Size  Location     Type
  1858 ;;                  1    wreg      void 
  1859 ;; Registers used:
  1860 ;;		wreg, status,2, cstack
  1861 ;; Tracked objects:
  1862 ;;		On entry : 0/0
  1863 ;;		On exit  : 0/0
  1864 ;;		Unchanged: 0/0
  1865 ;; Data sizes:     COMRAM   BANK0   BANK1   BANK2   BANK3   BANK4   BANK5   BANK6   BANK7
  1866 ;;      Params:         0       0       0       0       0       0       0       0       0
  1867 ;;      Locals:         0       0       0       0       0       0       0       0       0
  1868 ;;      Temps:          0       0       0       0       0       0       0       0       0
  1869 ;;      Totals:         0       0       0       0       0       0       0       0       0
  1870 ;;Total ram usage:        0 bytes
  1871 ;; Hardware stack levels used:    1
  1872 ;; Hardware stack levels required when called:    1
  1873 ;; This function calls:
  1874 ;;		_ADC_Initialize
  1875 ;;		_CCP2_Initialize
  1876 ;;		_OSCILLATOR_Initialize
  1877 ;;		_PIN_MANAGER_Initialize
  1878 ;; This function is called by:
  1879 ;;		_main
  1880 ;; This function uses a non-reentrant model
  1881 ;;
  1882                           
  1883                           	psect	text7
  1884  007500                     __ptext7:
  1885                           	opt callstack 0
  1886  007500                     _SYSTEM_Initialize:
  1887                           	opt callstack 29
  1888  007500                     
  1889                           ;mcc_generated_files/mcc.c: 53:     PIN_MANAGER_Initialize();
  1890  007500  ECBB  F03A         	call	_PIN_MANAGER_Initialize	;wreg free
  1891                           
  1892                           ;mcc_generated_files/mcc.c: 54:     OSCILLATOR_Initialize();
  1893  007504  EC77  F03A         	call	_OSCILLATOR_Initialize	;wreg free
  1894                           
  1895                           ;mcc_generated_files/mcc.c: 55:     CCP2_Initialize();
  1896  007508  EC70  F03A         	call	_CCP2_Initialize	;wreg free
  1897                           
  1898                           ;mcc_generated_files/mcc.c: 56:     ADC_Initialize();
  1899  00750C  EC89  F03A         	call	_ADC_Initialize	;wreg free
  1900  007510  0012               	return		;funcret
  1901  007512                     __end_of_SYSTEM_Initialize:
  1902                           	opt callstack 0
  1903                           
  1904 ;; *************** function _PIN_MANAGER_Initialize *****************
  1905 ;; Defined at:
  1906 ;;		line 55 in file "mcc_generated_files/pin_manager.c"
  1907 ;; Parameters:    Size  Location     Type
  1908 ;;		None
  1909 ;; Auto vars:     Size  Location     Type
  1910 ;;		None
  1911 ;; Return value:  Size  Location     Type
  1912 ;;                  1    wreg      void 
  1913 ;; Registers used:
  1914 ;;		wreg, status,2
  1915 ;; Tracked objects:
  1916 ;;		On entry : 0/0
  1917 ;;		On exit  : 0/0
  1918 ;;		Unchanged: 0/0
  1919 ;; Data sizes:     COMRAM   BANK0   BANK1   BANK2   BANK3   BANK4   BANK5   BANK6   BANK7
  1920 ;;      Params:         0       0       0       0       0       0       0       0       0
  1921 ;;      Locals:         0       0       0       0       0       0       0       0       0
  1922 ;;      Temps:          0       0       0       0       0       0       0       0       0
  1923 ;;      Totals:         0       0       0       0       0       0       0       0       0
  1924 ;;Total ram usage:        0 bytes
  1925 ;; Hardware stack levels used:    1
  1926 ;; This function calls:
  1927 ;;		Nothing
  1928 ;; This function is called by:
  1929 ;;		_SYSTEM_Initialize
  1930 ;; This function uses a non-reentrant model
  1931 ;;
  1932                           
  1933                           	psect	text8
  1934  007576                     __ptext8:
  1935                           	opt callstack 0
  1936  007576                     _PIN_MANAGER_Initialize:
  1937                           	opt callstack 29
  1938  007576                     
  1939                           ;mcc_generated_files/pin_manager.c: 60:     LATE = 0x00;
  1940  007576  0E00               	movlw	0
  1941  007578  6E8D               	movwf	141,c	;volatile
  1942                           
  1943                           ;mcc_generated_files/pin_manager.c: 61:     LATD = 0x00;
  1944  00757A  0E00               	movlw	0
  1945  00757C  6E8C               	movwf	140,c	;volatile
  1946                           
  1947                           ;mcc_generated_files/pin_manager.c: 62:     LATA = 0x00;
  1948  00757E  0E00               	movlw	0
  1949  007580  6E89               	movwf	137,c	;volatile
  1950                           
  1951                           ;mcc_generated_files/pin_manager.c: 63:     LATB = 0x00;
  1952  007582  0E00               	movlw	0
  1953  007584  6E8A               	movwf	138,c	;volatile
  1954                           
  1955                           ;mcc_generated_files/pin_manager.c: 64:     LATC = 0x00;
  1956  007586  0E00               	movlw	0
  1957  007588  6E8B               	movwf	139,c	;volatile
  1958                           
  1959                           ;mcc_generated_files/pin_manager.c: 69:     TRISE = 0x07;
  1960  00758A  0E07               	movlw	7
  1961  00758C  6E96               	movwf	150,c	;volatile
  1962  00758E                     
  1963                           ;mcc_generated_files/pin_manager.c: 70:     TRISA = 0xFF;
  1964  00758E  6892               	setf	146,c	;volatile
  1965  007590                     
  1966                           ;mcc_generated_files/pin_manager.c: 71:     TRISB = 0xFF;
  1967  007590  6893               	setf	147,c	;volatile
  1968                           
  1969                           ;mcc_generated_files/pin_manager.c: 72:     TRISC = 0xC7;
  1970  007592  0EC7               	movlw	199
  1971  007594  6E94               	movwf	148,c	;volatile
  1972  007596                     
  1973                           ;mcc_generated_files/pin_manager.c: 73:     TRISD = 0xFF;
  1974  007596  6895               	setf	149,c	;volatile
  1975  007598                     
  1976                           ;mcc_generated_files/pin_manager.c: 78:     ANSELD = 0xFF;
  1977  007598  010F               	movlb	15	; () banked
  1978  00759A  695E               	setf	94,b	;volatile
  1979                           
  1980                           ;mcc_generated_files/pin_manager.c: 79:     ANSELC = 0xC4;
  1981  00759C  0EC4               	movlw	196
  1982  00759E  6F5D               	movwf	93,b	;volatile
  1983                           
  1984                           ;mcc_generated_files/pin_manager.c: 80:     ANSELB = 0x3F;
  1985  0075A0  0E3F               	movlw	63
  1986  0075A2  6F5C               	movwf	92,b	;volatile
  1987                           
  1988                           ;mcc_generated_files/pin_manager.c: 81:     ANSELE = 0x07;
  1989  0075A4  0E07               	movlw	7
  1990  0075A6  6F5F               	movwf	95,b	;volatile
  1991                           
  1992                           ;mcc_generated_files/pin_manager.c: 82:     ANSELA = 0x2F;
  1993  0075A8  0E2F               	movlw	47
  1994  0075AA  6F5B               	movwf	91,b	;volatile
  1995                           
  1996                           ;mcc_generated_files/pin_manager.c: 87:     WPUB = 0x00;
  1997  0075AC  0E00               	movlw	0
  1998  0075AE  6E85               	movwf	133,c	;volatile
  1999  0075B0                     
  2000                           ; BSR set to: 15
  2001                           ;mcc_generated_files/pin_manager.c: 88:     INTCON2bits.nRBPU = 1;
  2002  0075B0  8EF1               	bsf	241,7,c	;volatile
  2003  0075B2                     
  2004                           ; BSR set to: 15
  2005  0075B2  0012               	return		;funcret
  2006  0075B4                     __end_of_PIN_MANAGER_Initialize:
  2007                           	opt callstack 0
  2008                           
  2009 ;; *************** function _OSCILLATOR_Initialize *****************
  2010 ;; Defined at:
  2011 ;;		line 59 in file "mcc_generated_files/mcc.c"
  2012 ;; Parameters:    Size  Location     Type
  2013 ;;		None
  2014 ;; Auto vars:     Size  Location     Type
  2015 ;;		None
  2016 ;; Return value:  Size  Location     Type
  2017 ;;                  1    wreg      void 
  2018 ;; Registers used:
  2019 ;;		wreg, status,2
  2020 ;; Tracked objects:
  2021 ;;		On entry : 0/0
  2022 ;;		On exit  : 0/0
  2023 ;;		Unchanged: 0/0
  2024 ;; Data sizes:     COMRAM   BANK0   BANK1   BANK2   BANK3   BANK4   BANK5   BANK6   BANK7
  2025 ;;      Params:         0       0       0       0       0       0       0       0       0
  2026 ;;      Locals:         0       0       0       0       0       0       0       0       0
  2027 ;;      Temps:          0       0       0       0       0       0       0       0       0
  2028 ;;      Totals:         0       0       0       0       0       0       0       0       0
  2029 ;;Total ram usage:        0 bytes
  2030 ;; Hardware stack levels used:    1
  2031 ;; This function calls:
  2032 ;;		Nothing
  2033 ;; This function is called by:
  2034 ;;		_SYSTEM_Initialize
  2035 ;; This function uses a non-reentrant model
  2036 ;;
  2037                           
  2038                           	psect	text9
  2039  0074EE                     __ptext9:
  2040                           	opt callstack 0
  2041  0074EE                     _OSCILLATOR_Initialize:
  2042                           	opt callstack 29
  2043  0074EE                     
  2044                           ;mcc_generated_files/mcc.c: 62:     OSCCON = 0x60;
  2045  0074EE  0E60               	movlw	96
  2046  0074F0  6ED3               	movwf	211,c	;volatile
  2047                           
  2048                           ;mcc_generated_files/mcc.c: 64:     OSCCON2 = 0x00;
  2049  0074F2  0E00               	movlw	0
  2050  0074F4  6ED2               	movwf	210,c	;volatile
  2051                           
  2052                           ;mcc_generated_files/mcc.c: 66:     OSCTUNE = 0x00;
  2053  0074F6  0E00               	movlw	0
  2054  0074F8  6E9B               	movwf	155,c	;volatile
  2055                           
  2056                           ;mcc_generated_files/mcc.c: 68:     ACTCON = 0x80;
  2057  0074FA  0E80               	movlw	128
  2058  0074FC  6EB5               	movwf	181,c	;volatile
  2059  0074FE  0012               	return		;funcret
  2060  007500                     __end_of_OSCILLATOR_Initialize:
  2061                           	opt callstack 0
  2062                           
  2063 ;; *************** function _CCP2_Initialize *****************
  2064 ;; Defined at:
  2065 ;;		line 49 in file "mcc_generated_files/ccp2.c"
  2066 ;; Parameters:    Size  Location     Type
  2067 ;;		None
  2068 ;; Auto vars:     Size  Location     Type
  2069 ;;		None
  2070 ;; Return value:  Size  Location     Type
  2071 ;;                  1    wreg      void 
  2072 ;; Registers used:
  2073 ;;		wreg, status,2
  2074 ;; Tracked objects:
  2075 ;;		On entry : 0/0
  2076 ;;		On exit  : 0/0
  2077 ;;		Unchanged: 0/0
  2078 ;; Data sizes:     COMRAM   BANK0   BANK1   BANK2   BANK3   BANK4   BANK5   BANK6   BANK7
  2079 ;;      Params:         0       0       0       0       0       0       0       0       0
  2080 ;;      Locals:         0       0       0       0       0       0       0       0       0
  2081 ;;      Temps:          0       0       0       0       0       0       0       0       0
  2082 ;;      Totals:         0       0       0       0       0       0       0       0       0
  2083 ;;Total ram usage:        0 bytes
  2084 ;; Hardware stack levels used:    1
  2085 ;; This function calls:
  2086 ;;		Nothing
  2087 ;; This function is called by:
  2088 ;;		_SYSTEM_Initialize
  2089 ;; This function uses a non-reentrant model
  2090 ;;
  2091                           
  2092                           	psect	text10
  2093  0074E0                     __ptext10:
  2094                           	opt callstack 0
  2095  0074E0                     _CCP2_Initialize:
  2096                           	opt callstack 29
  2097  0074E0                     
  2098                           ;mcc_generated_files/ccp2.c: 53:  CCP2CON = 0x00;
  2099  0074E0  0E00               	movlw	0
  2100  0074E2  6E97               	movwf	151,c	;volatile
  2101                           
  2102                           ;mcc_generated_files/ccp2.c: 56:  CCPR2L = 0x00;
  2103  0074E4  0E00               	movlw	0
  2104  0074E6  6E90               	movwf	144,c	;volatile
  2105                           
  2106                           ;mcc_generated_files/ccp2.c: 59:  CCPR2H = 0x00;
  2107  0074E8  0E00               	movlw	0
  2108  0074EA  6E91               	movwf	145,c	;volatile
  2109  0074EC  0012               	return		;funcret
  2110  0074EE                     __end_of_CCP2_Initialize:
  2111                           	opt callstack 0
  2112                           
  2113 ;; *************** function _ADC_Initialize *****************
  2114 ;; Defined at:
  2115 ;;		line 62 in file "mcc_generated_files/adc.c"
  2116 ;; Parameters:    Size  Location     Type
  2117 ;;		None
  2118 ;; Auto vars:     Size  Location     Type
  2119 ;;		None
  2120 ;; Return value:  Size  Location     Type
  2121 ;;                  1    wreg      void 
  2122 ;; Registers used:
  2123 ;;		wreg, status,2
  2124 ;; Tracked objects:
  2125 ;;		On entry : 0/0
  2126 ;;		On exit  : 0/0
  2127 ;;		Unchanged: 0/0
  2128 ;; Data sizes:     COMRAM   BANK0   BANK1   BANK2   BANK3   BANK4   BANK5   BANK6   BANK7
  2129 ;;      Params:         0       0       0       0       0       0       0       0       0
  2130 ;;      Locals:         0       0       0       0       0       0       0       0       0
  2131 ;;      Temps:          0       0       0       0       0       0       0       0       0
  2132 ;;      Totals:         0       0       0       0       0       0       0       0       0
  2133 ;;Total ram usage:        0 bytes
  2134 ;; Hardware stack levels used:    1
  2135 ;; This function calls:
  2136 ;;		Nothing
  2137 ;; This function is called by:
  2138 ;;		_SYSTEM_Initialize
  2139 ;; This function uses a non-reentrant model
  2140 ;;
  2141                           
  2142                           	psect	text11
  2143  007512                     __ptext11:
  2144                           	opt callstack 0
  2145  007512                     _ADC_Initialize:
  2146                           	opt callstack 29
  2147  007512                     
  2148                           ;mcc_generated_files/adc.c: 67:     ADCON1 = 0x00;
  2149  007512  0E00               	movlw	0
  2150  007514  6EC1               	movwf	193,c	;volatile
  2151                           
  2152                           ;mcc_generated_files/adc.c: 70:     ADCON2 = 0x05;
  2153  007516  0E05               	movlw	5
  2154  007518  6EC0               	movwf	192,c	;volatile
  2155                           
  2156                           ;mcc_generated_files/adc.c: 73:     ADRESL = 0x00;
  2157  00751A  0E00               	movlw	0
  2158  00751C  6EC3               	movwf	195,c	;volatile
  2159                           
  2160                           ;mcc_generated_files/adc.c: 76:     ADRESH = 0x00;
  2161  00751E  0E00               	movlw	0
  2162  007520  6EC4               	movwf	196,c	;volatile
  2163                           
  2164                           ;mcc_generated_files/adc.c: 79:     ADCON0 = 0x01;
  2165  007522  0E01               	movlw	1
  2166  007524  6EC2               	movwf	194,c	;volatile
  2167  007526  0012               	return		;funcret
  2168  007528                     __end_of_ADC_Initialize:
  2169                           	opt callstack 0
  2170                           
  2171 ;; *************** function _ADC_SelectChannel *****************
  2172 ;; Defined at:
  2173 ;;		line 83 in file "mcc_generated_files/adc.c"
  2174 ;; Parameters:    Size  Location     Type
  2175 ;;  channel         1    wreg     enum E4848
  2176 ;; Auto vars:     Size  Location     Type
  2177 ;;  channel         1    1[COMRAM] enum E4848
  2178 ;; Return value:  Size  Location     Type
  2179 ;;                  1    wreg      void 
  2180 ;; Registers used:
  2181 ;;		wreg, status,2, status,0
  2182 ;; Tracked objects:
  2183 ;;		On entry : 0/0
  2184 ;;		On exit  : 0/0
  2185 ;;		Unchanged: 0/0
  2186 ;; Data sizes:     COMRAM   BANK0   BANK1   BANK2   BANK3   BANK4   BANK5   BANK6   BANK7
  2187 ;;      Params:         0       0       0       0       0       0       0       0       0
  2188 ;;      Locals:         1       0       0       0       0       0       0       0       0
  2189 ;;      Temps:          1       0       0       0       0       0       0       0       0
  2190 ;;      Totals:         2       0       0       0       0       0       0       0       0
  2191 ;;Total ram usage:        2 bytes
  2192 ;; Hardware stack levels used:    1
  2193 ;; This function calls:
  2194 ;;		Nothing
  2195 ;; This function is called by:
  2196 ;;		_main
  2197 ;; This function uses a non-reentrant model
  2198 ;;
  2199                           
  2200                           	psect	text12
  2201  007528                     __ptext12:
  2202                           	opt callstack 0
  2203  007528                     _ADC_SelectChannel:
  2204                           	opt callstack 30
  2205                           
  2206                           ;incstack = 0
  2207                           ;ADC_SelectChannel@channel stored from wreg
  2208  007528  6E02               	movwf	ADC_SelectChannel@channel^0,c
  2209  00752A                     
  2210                           ;mcc_generated_files/adc.c: 83: void ADC_SelectChannel(adc_channel_t channel);mcc_genera
      +                          ted_files/adc.c: 84: {;mcc_generated_files/adc.c: 86:     ADCON0bits.CHS = channel;
  2211  00752A  C002  F001         	movff	ADC_SelectChannel@channel,??_ADC_SelectChannel
  2212  00752E  4601               	rlncf	??_ADC_SelectChannel^0,f,c
  2213  007530  4601               	rlncf	??_ADC_SelectChannel^0,f,c
  2214  007532  50C2               	movf	194,w,c	;volatile
  2215  007534  1801               	xorwf	??_ADC_SelectChannel^0,w,c
  2216  007536  0B83               	andlw	-125
  2217  007538  1801               	xorwf	??_ADC_SelectChannel^0,w,c
  2218  00753A  6EC2               	movwf	194,c	;volatile
  2219  00753C                     
  2220                           ;mcc_generated_files/adc.c: 88:     ADCON0bits.ADON = 1;
  2221  00753C  80C2               	bsf	194,0,c	;volatile
  2222  00753E  0012               	return		;funcret
  2223  007540                     __end_of_ADC_SelectChannel:
  2224                           	opt callstack 0
  2225                           
  2226 ;; *************** function _ADC_GetConversion *****************
  2227 ;; Defined at:
  2228 ;;		line 110 in file "mcc_generated_files/adc.c"
  2229 ;; Parameters:    Size  Location     Type
  2230 ;;  channel         1    wreg     enum E4848
  2231 ;; Auto vars:     Size  Location     Type
  2232 ;;  channel         1    4[COMRAM] enum E4848
  2233 ;; Return value:  Size  Location     Type
  2234 ;;                  2    0[COMRAM] unsigned short 
  2235 ;; Registers used:
  2236 ;;		wreg, status,2, status,0
  2237 ;; Tracked objects:
  2238 ;;		On entry : 0/0
  2239 ;;		On exit  : 0/0
  2240 ;;		Unchanged: 0/0
  2241 ;; Data sizes:     COMRAM   BANK0   BANK1   BANK2   BANK3   BANK4   BANK5   BANK6   BANK7
  2242 ;;      Params:         2       0       0       0       0       0       0       0       0
  2243 ;;      Locals:         1       0       0       0       0       0       0       0       0
  2244 ;;      Temps:          2       0       0       0       0       0       0       0       0
  2245 ;;      Totals:         5       0       0       0       0       0       0       0       0
  2246 ;;Total ram usage:        5 bytes
  2247 ;; Hardware stack levels used:    1
  2248 ;; This function calls:
  2249 ;;		Nothing
  2250 ;; This function is called by:
  2251 ;;		_main
  2252 ;; This function uses a non-reentrant model
  2253 ;;
  2254                           
  2255                           	psect	text13
  2256  0075B4                     __ptext13:
  2257                           	opt callstack 0
  2258  0075B4                     _ADC_GetConversion:
  2259                           	opt callstack 30
  2260                           
  2261                           ;incstack = 0
  2262                           ;ADC_GetConversion@channel stored from wreg
  2263  0075B4  6E05               	movwf	ADC_GetConversion@channel^0,c
  2264  0075B6                     
  2265                           ;mcc_generated_files/adc.c: 110: adc_result_t ADC_GetConversion(adc_channel_t channel);m
      +                          cc_generated_files/adc.c: 111: {;mcc_generated_files/adc.c: 113:     ADCON0bits.CHS = ch
      +                          annel;
  2266  0075B6  C005  F003         	movff	ADC_GetConversion@channel,??_ADC_GetConversion
  2267  0075BA  4603               	rlncf	??_ADC_GetConversion^0,f,c
  2268  0075BC  4603               	rlncf	??_ADC_GetConversion^0,f,c
  2269  0075BE  50C2               	movf	194,w,c	;volatile
  2270  0075C0  1803               	xorwf	??_ADC_GetConversion^0,w,c
  2271  0075C2  0B83               	andlw	-125
  2272  0075C4  1803               	xorwf	??_ADC_GetConversion^0,w,c
  2273  0075C6  6EC2               	movwf	194,c	;volatile
  2274  0075C8                     
  2275                           ;mcc_generated_files/adc.c: 116:     ADCON0bits.ADON = 1;
  2276  0075C8  80C2               	bsf	194,0,c	;volatile
  2277  0075CA                     
  2278                           ;mcc_generated_files/adc.c: 119:     ADCON0bits.GO_nDONE = 1;
  2279  0075CA  82C2               	bsf	194,1,c	;volatile
  2280                           
  2281                           ;mcc_generated_files/adc.c: 122:     while (ADCON0bits.GO_nDONE)
  2282  0075CC  EFE9  F03A         	goto	l34
  2283  0075D0                     l35:
  2284  0075D0  0004               	clrwdt		;# 
  2285  0075D2                     l34:
  2286                           
  2287                           ;mcc_generated_files/adc.c: 122:     while (ADCON0bits.GO_nDONE)
  2288  0075D2  B2C2               	btfsc	194,1,c	;volatile
  2289  0075D4  EFEE  F03A         	goto	u501
  2290  0075D8  EFF0  F03A         	goto	u500
  2291  0075DC                     u501:
  2292  0075DC  EFE8  F03A         	goto	l35
  2293  0075E0                     u500:
  2294  0075E0                     
  2295                           ;mcc_generated_files/adc.c: 128:     return ((adc_result_t)((ADRESH << 8) + ADRESL));
  2296  0075E0  50C4               	movf	196,w,c	;volatile
  2297  0075E2  6E04               	movwf	(??_ADC_GetConversion+1)^0,c
  2298  0075E4  6A03               	clrf	??_ADC_GetConversion^0,c
  2299  0075E6  50C3               	movf	195,w,c	;volatile
  2300  0075E8  2403               	addwf	??_ADC_GetConversion^0,w,c
  2301  0075EA  6E01               	movwf	?_ADC_GetConversion^0,c
  2302  0075EC  0E00               	movlw	0
  2303  0075EE  2004               	addwfc	(??_ADC_GetConversion+1)^0,w,c
  2304  0075F0  6E02               	movwf	(?_ADC_GetConversion+1)^0,c
  2305  0075F2  0012               	return		;funcret
  2306  0075F4                     __end_of_ADC_GetConversion:
  2307                           	opt callstack 0
  2308  0000                     
  2309                           	psect	rparam
  2310  0000                     tosu	equ	0xFFF
  2311                           tosh	equ	0xFFE
  2312                           tosl	equ	0xFFD
  2313                           stkptr	equ	0xFFC
  2314                           pclatu	equ	0xFFB
  2315                           pclath	equ	0xFFA
  2316                           pcl	equ	0xFF9
  2317                           tblptru	equ	0xFF8
  2318                           tblptrh	equ	0xFF7
  2319                           tblptrl	equ	0xFF6
  2320                           tablat	equ	0xFF5
  2321                           prodh	equ	0xFF4
  2322                           prodl	equ	0xFF3
  2323                           indf0	equ	0xFEF
  2324                           postinc0	equ	0xFEE
  2325                           postdec0	equ	0xFED
  2326                           preinc0	equ	0xFEC
  2327                           plusw0	equ	0xFEB
  2328                           fsr0h	equ	0xFEA
  2329                           fsr0l	equ	0xFE9
  2330                           wreg	equ	0xFE8
  2331                           indf1	equ	0xFE7
  2332                           postinc1	equ	0xFE6
  2333                           postdec1	equ	0xFE5
  2334                           preinc1	equ	0xFE4
  2335                           plusw1	equ	0xFE3
  2336                           fsr1h	equ	0xFE2
  2337                           fsr1l	equ	0xFE1
  2338                           bsr	equ	0xFE0
  2339                           indf2	equ	0xFDF
  2340                           postinc2	equ	0xFDE
  2341                           postdec2	equ	0xFDD
  2342                           preinc2	equ	0xFDC
  2343                           plusw2	equ	0xFDB
  2344                           fsr2h	equ	0xFDA
  2345                           fsr2l	equ	0xFD9
  2346                           status	equ	0xFD8


Data Sizes:
    Strings     0
    Constant    0
    Data        4
    BSS         12
    Persistent  0
    Stack       0

Auto Spaces:
    Space          Size  Autos    Used
    COMRAM           95     47      63
    BANK0           160      0       0
    BANK1           256      0       0
    BANK2           256      0       0
    BANK3           256      0       0
    BANK4           256      0       0
    BANK5           256      0       0
    BANK6           256      0       0
    BANK7           256      0       0

Pointer List with Targets:

    ADC_InterruptHandler	PTR FTN()void  size(2) Largest target is 1
		 -> Absolute function(), 

    get_distance@ticks	PTR unsigned short  size(2) Largest target is 2
		 -> main@distance(COMRAM[2]), 


Critical Paths under _main in COMRAM

    _main->___flmul
    ___flmul->___xxtofl

Critical Paths under _main in BANK0

    None.

Critical Paths under _main in BANK1

    None.

Critical Paths under _main in BANK2

    None.

Critical Paths under _main in BANK3

    None.

Critical Paths under _main in BANK4

    None.

Critical Paths under _main in BANK5

    None.

Critical Paths under _main in BANK6

    None.

Critical Paths under _main in BANK7

    None.

Call Graph Tables:

 ---------------------------------------------------------------------------------
 (Depth) Function   	        Calls       Base Space   Used Autos Params    Refs
 ---------------------------------------------------------------------------------
 (0) _main                                                 8     8      0    3270
                                             39 COMRAM     8     8      0
                  _ADC_GetConversion
                  _ADC_SelectChannel
                  _SYSTEM_Initialize
                             ___flge
                            ___flmul
                            ___lwdiv
                           ___xxtofl
                       _get_distance
                        _wait_sensor
 ---------------------------------------------------------------------------------
 (1) _wait_sensor                                          4     4      0      46
                                              0 COMRAM     4     4      0
 ---------------------------------------------------------------------------------
 (1) _get_distance                                         4     2      2     164
                                              0 COMRAM     4     2      2
 ---------------------------------------------------------------------------------
 (1) ___xxtofl                                            14    10      4     398
                                              0 COMRAM    14    10      4
 ---------------------------------------------------------------------------------
 (1) ___lwdiv                                              7     3      4     314
                                              0 COMRAM     7     3      4
 ---------------------------------------------------------------------------------
 (1) ___flmul                                             25    17      8    1896
                                             14 COMRAM    25    17      8
                           ___xxtofl (ARG)
 ---------------------------------------------------------------------------------
 (1) ___flge                                              12     4      8     334
                                              0 COMRAM    12     4      8
 ---------------------------------------------------------------------------------
 (1) _SYSTEM_Initialize                                    0     0      0       0
                     _ADC_Initialize
                    _CCP2_Initialize
              _OSCILLATOR_Initialize
             _PIN_MANAGER_Initialize
 ---------------------------------------------------------------------------------
 (2) _PIN_MANAGER_Initialize                               0     0      0       0
 ---------------------------------------------------------------------------------
 (2) _OSCILLATOR_Initialize                                0     0      0       0
 ---------------------------------------------------------------------------------
 (2) _CCP2_Initialize                                      0     0      0       0
 ---------------------------------------------------------------------------------
 (2) _ADC_Initialize                                       0     0      0       0
 ---------------------------------------------------------------------------------
 (1) _ADC_SelectChannel                                    2     2      0      22
                                              0 COMRAM     2     2      0
 ---------------------------------------------------------------------------------
 (1) _ADC_GetConversion                                    5     3      2      22
                                              0 COMRAM     5     3      2
 ---------------------------------------------------------------------------------
 Estimated maximum stack depth 2
 ---------------------------------------------------------------------------------

 Call Graph Graphs:

 _main (ROOT)
   _ADC_GetConversion
   _ADC_SelectChannel
   _SYSTEM_Initialize
     _ADC_Initialize
     _CCP2_Initialize
     _OSCILLATOR_Initialize
     _PIN_MANAGER_Initialize
   ___flge
   ___flmul
     ___xxtofl (ARG)
   ___lwdiv
   ___xxtofl
   _get_distance
   _wait_sensor

 Address spaces:
Name               Size   Autos  Total    Cost      Usage
BIGRAM             7FF      0       0      21        0.0%
EEDATA             100      0       0       0        0.0%
BITBANK7           100      0       0      19        0.0%
BANK7              100      0       0      20        0.0%
BITBANK6           100      0       0      17        0.0%
BANK6              100      0       0      18        0.0%
BITBANK5           100      0       0      15        0.0%
BANK5              100      0       0      16        0.0%
BITBANK4           100      0       0      13        0.0%
BANK4              100      0       0      14        0.0%
BITBANK3           100      0       0      11        0.0%
BANK3              100      0       0      12        0.0%
BITBANK2           100      0       0       9        0.0%
BANK2              100      0       0      10        0.0%
BITBANK1           100      0       0       7        0.0%
BANK1              100      0       0       8        0.0%
BITBANK0            A0      0       0       4        0.0%
BANK0               A0      0       0       5        0.0%
BITCOMRAM           5F      0       0       0        0.0%
COMRAM              5F     2F      3F       1       66.3%
BITSFR_1             0      0       0     200        0.0%
SFR_1                0      0       0     200        0.0%
BITSFR               0      0       0     200        0.0%
SFR                  0      0       0     200        0.0%
STACK                0      0       0       2        0.0%
NULL                 0      0       0       0        0.0%
ABS                  0      0      3F       6        0.0%
DATA                 0      0      3F       3        0.0%
CODE                 0      0       0       0        0.0%


Microchip Technology PIC18 Macro Assembler V2.10 build 88905656 
Symbol Table                                                                                   Wed Sep 02 16:20:36 2020

                             l22 753E                               l34 75D2  
                             l35 75D0                               l19 7526  
                             l37 75F2                               l62 74FE  
                             l59 7510                     __CFG_CP0$OFF 000000  
                   __CFG_CP1$OFF 000000                     __CFG_CP2$OFF 000000  
                   __CFG_CP3$OFF 000000                              l101 75B2  
                            l113 74EC                              l174 7744  
                            l166 7662                              l176 776C  
                            l464 7870                              l459 782A  
                            l812 7FFE                              l815 7E90  
                            l808 7C9A                              l825 7FC0  
                            l817 7F08                              l818 7EF6  
                            l692 76D6                              l852 7BD4  
                            l685 76CE                              l863 7B6C  
                            l856 7B10                              l849 7A78  
                   __CFG_CPB$OFF 000000                              u500 75E0  
                            u501 75DC                              u510 762E  
                            u511 762A                              u600 7C52  
                            u520 7644                              u601 7C4E  
                            u521 7640                              u610 7C64  
                            u530 765A                     __CFG_CPD$OFF 000000  
                            u611 7C60                              u531 7656  
                            u700 7F04                              u620 7C74  
                            u540 7726                              u701 7F00  
                            u621 7C70                              u541 7722  
                            u710 7F18                              u630 7CAA  
                            u550 7744                              u711 7F14  
                            u631 7CA6                              u551 7740  
                            u800 7868                              u720 7F32  
                            u640 7CBA                              u560 7764  
                            u801 7864                              u721 7F2E  
                            u641 7CB6                              u561 7760  
                            u730 7F7A                              u650 7E34  
                            u570 7BF0                              u810 767E  
                            u731 7F76                              u571 7BEC  
                            u811 767A                              u740 7FA8  
                            u660 7E8E                              u580 7C02  
                            u820 769C                              u900 7B6C  
                            u741 7FA4                              u661 7E8A  
                            u581 7BFE                              u821 7698  
                            u901 7B68                              u750 7FE2  
                            u670 7EAE                              u590 7C12  
                            u830 76B8                              u910 7B7A  
                            u751 7FDE                              u671 7EAA  
                            u655 7E2A                              u591 7C0E  
                            u831 76B4                              u911 7B76  
                            u760 779C                              u680 7EC0  
                            u920 7BB4                              u840 7A34  
                            u761 7798                              u681 7EBC  
                            u921 7BB0                              u841 7A30  
                            u770 77DA                              u690 7EEE  
                            u930 7BC2                              u850 7A42  
                            u771 77D6                              u691 7EEA  
                            u931 7BBE                              u851 7A3E  
                            u780 77F8                              u860 7A9E  
                            u940 78C6                              u781 77F4  
                            u861 7A9A                              u941 78C2  
                            u790 7818                              u870 7AF4  
                            u950 7986                              u791 7814  
                            u871 7AF0                              u951 7982  
                            u880 7B3E                              u960 79A2  
                            u881 7B3A                              u961 799E  
                            u890 7B5C                              u970 79C6  
                            u891 7B58                              u971 79C2  
                            u980 79E0                              u981 79DC  
                            u997 78A2                              wreg 000FE8  
                   ___flmul@aexp 0020                     ___flmul@bexp 0021  
                   ___flmul@sign 001B                     ___flmul@temp 0026  
                   ___flmul@prod 0022                     __CFG_LVP$OFF 000000  
                           l1301 7746                             l1303 7764  
                           l1241 7590                             l1401 7EA0  
                           l1321 7C02                             l1313 7BD6  
                           l1235 7512                             l1251 74E0  
                           l1243 7596                             l1403 7EAE  
                           l1331 7C3E                             l1323 7C12  
                           l1315 7BE2                             l1261 75CA  
                           l1253 752A                             l1245 7598  
                           l1237 7576                             l1413 7F18  
                           l1421 7F60                             l1405 7EB2  
                           l1341 7C74                             l1333 7C44  
                           l1325 7C22                             l1317 7BF0  
                           l1501 7ABA                             l1309 776A  
                           l1263 75E0                             l1255 753C  
                           l1247 75B0                             l1239 758E  
                           l1431 7FD4                             l1423 7F7A  
                           l1415 7F24                             l1407 7EC0  
                           l1343 7C84                             l1335 7C52  
                           l1327 7C28                             l1319 7BF2  
                           l1511 7B42                             l1503 7AC6  
                           l1271 7604                             l1257 75B6  
                           l1249 74EE                             l1433 7FE2  
                           l1425 7F8E                             l1417 7F32  
                           l1409 7EEE                             l1361 7D06  
                           l1353 7CCE                             l1345 7C8A  
                           l1337 7C54                             l1329 7C38  
                           l1521 7B80                             l1513 7B4E  
                           l1505 7AF8                             l1281 765A  
                           l1273 760A                             l1259 75C8  
                           l1267 7500                             l1451 77EA  
                           l1443 776E                             l1435 7FE4  
                           l1427 7FA8                             l1419 7F5C  
                           l1371 7D50                             l1363 7D1E  
                           l1355 7CDA                             l1347 7CAA  
                           l1339 7C64                             l1523 7BA4  
                           l1515 7B5C                             l1507 7AFA  
                           l1291 76D8                             l1275 7620  
                           l1461 786E                             l1453 77F8  
                           l1445 779C                             l1429 7FC4  
                           l1437 7FEA                             l1381 7DA6  
                           l1373 7D60                             l1365 7D2A  
                           l1357 7CE4                             l1349 7CBA  
                           l1525 7BB4                             l1517 7B7A  
                           l1509 7B06                             l1293 76E8  
                           l1277 762E                             l1269 75F4  
                           l1541 7882                             l1533 7872  
                           l1455 780A                             l1447 77AC  
                           l1439 7FEE                             l1391 7E4A  
                           l1383 7DC2                             l1375 7D6C  
                           l1367 7D36                             l1359 7CFA  
                           l1471 7686                             l1527 7BC2  
                           l1519 7B7C                             l1295 76F4  
                           l1287 7660                             l1279 7644  
                           l1551 7894                             l1543 7884  
                           l1535 7876                             l1457 7818  
                           l1449 77DA                             l1393 7E58  
                           l1385 7DCE                             l1377 7D7C  
                           l1369 7D44                             l1481 76C0  
                           l1473 768E                             l1465 7664  
                           l1529 7BC4                             l1297 7718  
                           l1561 78C6                             l1553 7896  
                           l1545 7888                             l1537 787A  
                           l1459 7868                             l1395 7E76  
                           l1387 7DEA                             l1379 7D96  
                           l1483 76C2                             l1475 769C  
                           l1467 766C                             l1491 7A42  
                           l1299 7726                             l1563 78D4  
                           l1571 7990                             l1555 7898  
                           l1547 7890                             l1539 787E  
                           l1397 7E80                             l1389 7E14  
                           l1485 76C8                             l1477 76A2  
                           l1469 767E                             l1493 7A88  
                           l1581 79C6                             l1573 79A2  
                           l1565 7920                             l1557 78AE  
                           l1549 7892                             l1399 7E8E  
                           l1479 76B8                             l1495 7A9E  
                           l1487 7A24                             l1583 79E0  
                           l1575 79AA                             l1567 7986  
                           l1559 78B4                             l1489 7A34  
                           l1585 79E6                             l1577 79B2  
                           l1569 7988                             l1499 7AB2  
                           l1587 7A02                             l1579 79B4  
                           u1007 79AC                             u1017 7A0C  
                           _LATA 000F89                             _LATB 000F8A  
                           _LATC 000F8B                             _LATD 000F8C  
                           _LATE 000F8D                             _WPUB 000F85  
                 ??_get_distance 0003          __end_of_CCP2_Initialize 74EE  
                           _flag 0036                             _main 7872  
                           fsr2h 000FDA                             fsr1l 000FE1  
                           fsr2l 000FD9                    __CFG_BORV$190 000000  
                           prodh 000FF4                             prodl 000FF3  
                           start 0000                    __CFG_IESO$OFF 000000  
                  __CFG_MCLRE$ON 000000                     ___param_bank 000000  
 __size_of_OSCILLATOR_Initialize 0012    __end_of_OSCILLATOR_Initialize 7500  
                   main@distance 002E                            ?_main 0001  
                __end_of___flmul 8000                            _T1CON 000FCD  
                 __CFG_DEBUG$OFF 000000                  __end_of___lwdiv 76D8  
                  __CFG_WDTEN$ON 000000                            _TMR1H 000FCF  
                          _TMR1L 000FCE                            _PORTB 000F81  
                          _TRISA 000F92                            _TRISB 000F93  
                          _TRISC 000F94                            _TRISD 000F95  
                          _TRISE 000F96                    __CFG_WRT0$OFF 000000  
                  __CFG_WRT1$OFF 000000                    __CFG_WRT2$OFF 000000  
                  __CFG_WRT3$OFF 000000                   __CFG_EBTR0$OFF 000000  
                 __CFG_FCMEN$OFF 000000                   __CFG_EBTR1$OFF 000000  
                 __CFG_EBTR2$OFF 000000                   __CFG_EBTR3$OFF 000000  
                  __CFG_WRTB$OFF 000000                    __CFG_WRTC$OFF 000000  
                  __CFG_WRTD$OFF 000000                   __CFG_EBTRB$OFF 000000  
                          tablat 000FF5                            status 000FD8  
                 __CFG_T3CMX$RC0 000000                   __CFG_ICPRT$OFF 000000  
                 __CFG_PBADEN$ON 000000                  __initialization 7540  
                   __end_of_main 7A22                   __CFG_PCLKEN$ON 000000  
                         ??_main 0028                    __activetblptr 000002  
                 __CFG_SDOMX$RB3 000000                  __CFG_CCP2MX$RC1 000000  
                         _ADCON0 000FC2                           _ADCON1 000FC1  
                         _ADCON2 000FC0                           _ACTCON 000FB5  
                         _ADRESH 000FC4                           _ADRESL 000FC3  
                         _CCPR2H 000F91                           _CCPR2L 000F90  
                         _ANSELA 000F5B                           _ANSELB 000F5C  
                         _ANSELC 000F5D                           _ANSELD 000F5E  
                         _ANSELE 000F5F                           _OSCCON 000FD3  
                         _TMR1ON 007E68                           _TRISB1 007C99  
               ?_CCP2_Initialize 0001                 __end_of___xxtofl 7BD6  
                 __CFG_XINST$OFF 000000                           ___flge 776E  
                 __CFG_STVREN$ON 000000                        ??___flmul 0017  
                      ??___lwdiv 0005                           _limite 003C  
                         clear_0 7566             __end_of_get_distance 776E  
                   ?_wait_sensor 0001                     __pdataCOMRAM 003C  
                         tblptrh 000FF7                           tblptrl 000FF6  
                         tblptru 000FF8         ADC_GetConversion@channel 0005  
                     ___flge@ff1 0001                       ___flge@ff2 0005  
           __CFG_LS48MHZ$SYS24X4 000000                     ___xxtofl@arg 000B  
                   ___xxtofl@exp 000A                _SYSTEM_Initialize 7500  
                   ___xxtofl@val 0001                       __accesstop 0060  
        __end_of__initialization 756C               ?_SYSTEM_Initialize 0001  
                  ___rparam_used 000001                   __pcstackCOMRAM 0001  
               __CFG_nPWRTEN$OFF 000000              ??_SYSTEM_Initialize 0001  
      __end_of_SYSTEM_Initialize 7512                __CFG_PLLSEL$PLL4X 000000  
                        ?___flge 0001                          _CCP2CON 000F97  
        __size_of_ADC_Initialize 0016                        ?___xxtofl 0001  
              get_distance@ticks 0001                          _OSCCON2 000FD2  
                        _OSCTUNE 000F9B             _ADC_InterruptHandler 003A  
                        __Hparam 0000                          __Lparam 0000  
          __size_of_get_distance 0096                  __size_of___flge 0104  
                        ___flmul 7BD6                          ___lwdiv 7664  
                        __pcinit 7540                          __ramtop 0800  
                        __ptext0 7872                          __ptext1 75F4  
                        __ptext2 76D8                          __ptext3 7A22  
                        __ptext4 7664                          __ptext5 7BD6  
                        __ptext6 776E                          __ptext7 7500  
                        __ptext8 7576                          __ptext9 74EE  
                        _valLM35 0038            _OSCILLATOR_Initialize 74EE  
                     ??___xxtofl 0005         ??_PIN_MANAGER_Initialize 0001  
           __size_of_wait_sensor 0070       __size_of_SYSTEM_Initialize 0012  
           end_of_initialization 756C                    __Lmediumconst 0000  
                   _get_distance 76D8                          postdec1 000FE5  
                        postdec2 000FDD                          postinc0 000FEE  
                        postinc2 000FDE                    ___xxtofl@sign 0009  
                      _TRISAbits 000F92                        _TRISBbits 000F93  
                      _TRISDbits 000F95                      ___flmul@grs 001C  
       __size_of_CCP2_Initialize 000E                   __end_of___flge 7872  
                  __pidataCOMRAM 74DC                   _ADC_Initialize 7512  
         ?_OSCILLATOR_Initialize 0001              start_initialization 7540  
__size_of_PIN_MANAGER_Initialize 003E                  __CFG_nLPBOR$OFF 000000  
                       ??___flge 0009           __end_of_ADC_Initialize 7528  
                      ___flmul@a 0013                        ___flmul@b 000F  
                    __pbssCOMRAM 0030                __size_of___xxtofl 01B4  
                      _main$1175 002A                 ___lwdiv@dividend 0001  
         _PIN_MANAGER_Initialize 7576                _ADC_SelectChannel 7528  
                       ?___flmul 000F                         ?___lwdiv 0001  
                ?_ADC_Initialize 0001               ?_ADC_SelectChannel 0001  
              ??_CCP2_Initialize 0001              ??_ADC_SelectChannel 0001  
               ___lwdiv@quotient 0005                         _LATBbits 000F8A  
                       _LATDbits 000F8C        __end_of_ADC_SelectChannel 7540  
               __CFG_WDTPS$32768 000000                       _ADCON0bits 000FC2  
                  ??_wait_sensor 0001         ADC_SelectChannel@channel 0002  
              __CFG_CFGPLLEN$OFF 000000                      _INTCON2bits 000FF1  
                      copy_data0 7554                         __Hrparam 0000  
                       __Lrparam 0000                _ADC_GetConversion 75B4  
             __CFG_BOREN$SBORDIS 000000          ??_OSCILLATOR_Initialize 0001  
             ?_ADC_GetConversion 0001                 __size_of___flmul 042A  
               __size_of___lwdiv 0074              ??_ADC_GetConversion 0003  
                       ___xxtofl 7A22                  ___lwdiv@divisor 0003  
                ___lwdiv@counter 0007                         __ptext10 74E0  
                       __ptext11 7512                         __ptext12 7528  
                       __ptext13 75B4              __end_of_wait_sensor 7664  
                       _distance 0034                    __size_of_main 01B0  
      __end_of_ADC_GetConversion 75F4       __size_of_ADC_SelectChannel 0018  
                     _INTCONbits 000FF2          ?_PIN_MANAGER_Initialize 0001  
               ??_ADC_Initialize 0001                  _CCP2_Initialize 74E0  
           __CFG_CPUDIV$NOCLKDIV 000000                      _temperature 0030  
                    _wait_sensor 75F4                     wait_sensor@i 0003  
             __CFG_FOSC$INTOSCIO 000000   __end_of_PIN_MANAGER_Initialize 75B4  
                  ?_get_distance 0001       __size_of_ADC_GetConversion 0040  
